(lp1
(lp2
(ibuftoken
BufToken
p3
(dp4
S'index'
p5
I0
sS'word'
p6
S'Hello'
p7
sS'ne'
p8
S'O'
sS'pos'
p9
S'UH'
p10
sS'lemma'
p11
S'hello'
p12
sS'nodes'
p13
Nsba(ibuftoken
BufToken
p14
(dp15
g5
I1
sg6
S'world'
p16
sg8
S'O'
sg9
S'NN'
p17
sg11
S'world'
p18
sg13
Nsba(ibuftoken
BufToken
p19
(dp20
g5
I2
sg6
S'mother'
p21
sg8
S'O'
sg9
S'NN'
p22
sg11
S'mother'
p23
sg13
Nsba(ibuftoken
BufToken
p24
(dp25
g5
I3
sg6
S'fuckers'
p26
sg8
S'O'
sg9
S'NNS'
p27
sg11
S'fucker'
p28
sg13
Nsba(ibuftoken
BufToken
p29
(dp30
g5
I4
sg6
S'!'
sg8
S'O'
sg9
S'.'
sg11
S'!'
sg13
Nsbaa.