(lp1
(lp2
(I0
S'ROOT'
p3
I0
tp4
a(I0
S'dep'
p5
I2
tp6
a(I2
S'dep'
p7
I4
tp8
aa(lp9
(I5
g3
I5
tp10
a(I1
S'det'
p11
I0
tp12
a(I5
S'nsubj'
p13
I1
tp14
a(I1
S'prep'
p15
I3
tp16
a(I4
S'nn'
p17
I4
tp18
a(I4
S'nn'
p19
I4
tp20
a(I3
S'pobj'
p21
I4
tp22
a(I4
S'nn'
p23
I4
tp24
a(I4
S'prep_for'
p25
I4
tp26
a(I8
S'det'
p27
I7
tp28
a(I5
S'prep_in'
p29
I8
tp30
a(I12
S'mark'
p31
I9
tp32
a(I12
S'nsubj'
p33
I10
tp34
a(I12
S'aux'
p35
I11
tp36
a(I5
S'ccomp'
p37
I12
tp38
a(I14
S'det'
p39
I13
tp40
a(I12
S'dobj'
p41
I14
tp42
a(I17
S'nn'
p43
I16
tp44
a(I14
S'dep'
p45
I17
tp46
a(I17
S'prep_for'
p47
I19
tp48
a(I19
S'amod'
p49
I20
tp50
a(I23
S'nn'
p51
I22
tp52
a(I14
S'dep'
p53
I23
tp54
aa(lp55
(I5
g3
I5
tp56
a(I1
S'det'
p57
I0
tp58
a(I5
S'nsubj'
p59
I1
tp60
a(I1
S'prep'
p61
I3
tp62
a(I4
S'nn'
p63
I4
tp64
a(I4
S'nn'
p65
I4
tp66
a(I3
S'pobj'
p67
I4
tp68
a(I4
S'nn'
p69
I4
tp70
a(I4
S'prep_for'
p71
I4
tp72
a(I8
S'det'
p73
I7
tp74
a(I5
S'prep_in'
p75
I8
tp76
a(I12
S'mark'
p77
I9
tp78
a(I12
S'nsubj'
p79
I10
tp80
a(I12
S'aux'
p81
I11
tp82
a(I5
S'ccomp'
p83
I12
tp84
a(I14
S'det'
p85
I13
tp86
a(I12
S'dobj'
p87
I14
tp88
a(I17
S'nn'
p89
I16
tp90
a(I14
S'dep'
p91
I17
tp92
a(I17
S'prep_for'
p93
I19
tp94
a(I19
S'amod'
p95
I20
tp96
a(I23
S'nn'
p97
I22
tp98
a(I14
S'dep'
p99
I23
tp100
aa(lp101
(I10
g3
I10
tp102
a(I10
S'prep_on'
p103
I1
tp104
a(I10
S'tmod'
p105
I1
tp106
a(I1
S'num'
p107
I1
tp108
a(I8
S'amod'
p109
I2
tp110
a(I5
S'dep'
p111
I4
tp112
a(I2
S'dep'
p113
I5
tp114
a(I8
S'nn'
p115
I7
tp116
a(I9
S'nn'
p117
I8
tp118
a(I9
S'nn'
p119
I9
tp120
a(I9
S'nn'
p121
I9
tp122
a(I10
S'nsubj'
p123
I9
tp124
a(I9
S'nn'
p125
I9
tp126
a(I9
S'prep_for'
p127
I9
tp128
a(I14
S'det'
p129
I12
tp130
a(I14
S'amod'
p131
I13
tp132
a(I10
S'prep_for'
p133
I14
tp134
a(I19
S'det'
p135
I16
tp136
a(I19
S'nn'
p137
I17
tp138
a(I19
S'num'
p139
I17
tp140
a(I19
S'nn'
p141
I18
tp142
a(I10
S'prep_since'
p143
I19
tp144
a(I22
S'det'
p145
I21
tp146
a(I19
S'prep_on'
p147
I22
tp148
aa(lp149
(I2
g3
I2
tp150
a(I0
S'nn'
p151
I0
tp152
a(I0
S'nn'
p153
I0
tp154
a(I2
S'nsubjpass'
p155
I0
tp156
a(I0
S'nn'
p157
I0
tp158
a(I0
S'prep_for'
p159
I0
tp160
a(I2
S'auxpass'
p161
I1
tp162
a(I2
S'prep_in'
p163
I4
tp164
aa(lp165
(I2
g3
I2
tp166
a(I0
S'nn'
p167
I0
tp168
a(I0
S'nn'
p169
I0
tp170
a(I2
S'nsubjpass'
p171
I0
tp172
a(I0
S'nn'
p173
I0
tp174
a(I0
S'prep_for'
p175
I0
tp176
a(I2
S'auxpass'
p177
I1
tp178
a(I5
S'det'
p179
I4
tp180
a(I5
S'nn'
p181
I5
tp182
a(I5
S'nn'
p183
I5
tp184
a(I7
S'poss'
p185
I5
tp186
a(I2
S'agent'
p187
I7
tp188
aa(lp189
(I0
g3
I0
tp190
a(I2
S'det'
p191
I1
tp192
a(I0
S'pobj'
p193
I2
tp194
a(I3
S'nn'
p195
I3
tp196
a(I3
S'nn'
p197
I3
tp198
a(I2
S'dep'
p199
I3
tp200
a(I4
S'mark'
p201
I3
tp202
a(I3
S'nn'
p203
I3
tp204
a(I4
S'nsubj'
p205
I3
tp206
a(I3
S'rcmod'
p207
I4
tp208
aa(lp209
(I2
g3
I2
tp210
a(I2
S'nsubj'
p211
I0
tp212
a(I2
S'aux'
p213
I1
tp214
a(I13
S'det'
p215
I3
tp216
a(I13
S'amod'
p217
I4
tp218
a(I7
S'nn'
p219
I6
tp220
a(I10
S'dep'
p221
I7
tp222
a(I7
S'prep_for'
p223
I9
tp224
a(I4
S'dep'
p225
I10
tp226
a(I13
S'nn'
p227
I12
tp228
a(I2
S'dobj'
p229
I13
tp230
aa(lp231
(I1
g3
I1
tp232
a(I1
S'det'
p233
I0
tp234
a(I1
S'possessive'
p235
I2
tp236
a(I1
S'amod'
p237
I3
tp238
a(I6
S'nn'
p239
I5
tp240
a(I7
S'nsubj'
p241
I6
tp242
a(I1
S'dep'
p243
I7
tp244
a(I11
S'num'
p245
I9
tp246
a(I11
S'nn'
p247
I10
tp248
a(I7
S'prep_from'
p249
I11
tp250
a(I27
S'nn'
p251
I13
tp252
a(I27
S'appos'
p253
I15
tp254
a(I27
S'appos'
p255
I17
tp256
a(I27
S'appos'
p257
I19
tp258
a(I27
S'appos'
p259
I21
tp260
a(I27
S'appos'
p261
I23
tp262
a(I27
S'appos'
p263
I25
tp264
a(I27
S'appos'
p265
I27
tp266
a(I11
S'prep_including'
p267
I27
tp268
a(I27
S'appos'
p269
I29
tp270
a(I29
S'conj_and'
p271
I31
tp272
a(I29
S'conj_and'
p273
I33
tp274
aa(lp275
(I11
g3
I11
tp276
a(I1
S'det'
p277
I0
tp278
a(I11
S'poss'
p279
I1
tp280
a(I11
S'amod'
p281
I3
tp282
a(I6
S'nn'
p283
I5
tp284
a(I7
S'nsubj'
p285
I6
tp286
a(I11
S'dep'
p287
I7
tp288
a(I7
S'prep_to'
p289
I9
tp290
a(I11
S'dep'
p291
I12
tp292
a(I16
S'nn'
p293
I14
tp294
a(I16
S'nn'
p295
I15
tp296
a(I12
S'prep_in'
p297
I16
tp298
a(I16
S'conj_and'
p299
I18
tp300
a(I21
S'nn'
p301
I20
tp302
a(I11
S'dep'
p303
I21
tp304
a(I21
S'dep'
p305
I22
tp306
aa(lp307
(I11
g3
I11
tp308
a(I1
S'det'
p309
I0
tp310
a(I11
S'poss'
p311
I1
tp312
a(I11
S'amod'
p313
I3
tp314
a(I6
S'nn'
p315
I5
tp316
a(I7
S'nsubj'
p317
I6
tp318
a(I11
S'dep'
p319
I7
tp320
a(I7
S'prep_to'
p321
I9
tp322
a(I11
S'dep'
p323
I12
tp324
a(I16
S'nn'
p325
I14
tp326
a(I16
S'nn'
p327
I15
tp328
a(I12
S'prep_in'
p329
I16
tp330
a(I16
S'conj_and'
p331
I18
tp332
a(I21
S'nn'
p333
I20
tp334
a(I11
S'dep'
p335
I21
tp336
a(I21
S'dep'
p337
I22
tp338
aa(lp339
(I1
g3
I1
tp340
a(I1
S'nsubj'
p341
I0
tp342
a(I1
S'prepc_in'
p343
I3
tp344
a(I3
S'prep_with'
p345
I5
tp346
a(I5
S'conj_and'
p347
I7
tp348
a(I3
S'dep'
p349
I9
tp350
a(I9
S'dobj'
p351
I10
tp352
aa(lp353
(I3
g3
I3
tp354
a(I1
S'det'
p355
I0
tp356
a(I3
S'nsubj'
p357
I1
tp358
a(I3
S'aux'
p359
I2
tp360
a(I5
S'amod'
p361
I4
tp362
a(I3
S'dobj'
p363
I5
tp364
a(I8
S'amod'
p365
I7
tp366
a(I5
S'dep'
p367
I8
tp368
a(I11
S'amod'
p369
I10
tp370
a(I8
S'prep_including'
p371
I11
tp372
a(I11
S'vmod'
p373
I12
tp374
a(I12
S'prep_to'
p375
I14
tp376
a(I17
S'det'
p377
I16
tp378
a(I11
S'conj_and'
p379
I17
tp380
a(I17
S'prep_of'
p381
I19
tp382
a(I22
S'amod'
p383
I21
tp384
a(I19
S'prep_in'
p385
I22
tp386
a(I25
S'amod'
p387
I24
tp388
a(I11
S'conj_and'
p389
I25
tp390
a(I27
S'nsubj'
p391
I26
tp392
a(I25
S'rcmod'
p393
I27
tp394
a(I27
S'dobj'
p395
I28
tp396
a(I28
S'conj_and'
p397
I30
tp398
aa(lp399
(I3
g3
I3
tp400
a(I1
S'det'
p401
I0
tp402
a(I3
S'nsubj'
p403
I1
tp404
a(I3
S'aux'
p405
I2
tp406
a(I5
S'det'
p407
I4
tp408
a(I3
S'dobj'
p409
I5
tp410
a(I8
S'det'
p411
I7
tp412
a(I5
S'prep_of'
p413
I8
tp414
a(I10
S'aux'
p415
I9
tp416
a(I8
S'vmod'
p417
I10
tp418
a(I10
S'dobj'
p419
I11
tp420
a(I14
S'det'
p421
I13
tp422
a(I16
S'poss'
p423
I14
tp424
a(I11
S'conj_and'
p425
I16
tp426
a(I10
S'prepc_in'
p427
I18
tp428
a(I20
S'nn'
p429
I19
tp430
a(I18
S'dobj'
p431
I20
tp432
a(I18
S'conj_and'
p433
I22
tp434
a(I24
S'amod'
p435
I23
tp436
a(I22
S'dobj'
p437
I24
tp438
aa(lp439
(I4
g3
I4
tp440
a(I4
S'prep_in'
p441
I1
tp442
a(I1
S'num'
p443
I1
tp444
a(I3
S'nn'
p445
I2
tp446
a(I4
S'nsubj'
p447
I3
tp448
a(I6
S'det'
p449
I5
tp450
a(I4
S'dobj'
p451
I6
tp452
a(I9
S'nn'
p453
I8
tp454
a(I6
S'dep'
p455
I9
tp456
a(I11
S'nsubj'
p457
I10
tp458
a(I9
S'rcmod'
p459
I11
tp460
a(I13
S'det'
p461
I12
tp462
a(I11
S'dobj'
p463
I13
tp464
a(I15
S'aux'
p465
I14
tp466
a(I11
S'xcomp'
p467
I15
tp468
a(I17
S'aux'
p469
I16
tp470
a(I15
S'xcomp'
p471
I17
tp472
a(I17
S'dobj'
p473
I18
tp474
aa(lp475
(I0
g3
I0
tp476
aa(lp477
(I0
g3
I0
tp478
a(I0
S'nn'
p479
I0
tp480
a(I3
S'num'
p481
I1
tp482
a(I3
S'nn'
p483
I2
tp484
a(I0
S'dep'
p485
I3
tp486
aa(lp487
(I0
g3
I0
tp488
a(I0
S'dep'
p489
I2
tp490
aa(lp491
(I5
g3
I5
tp492
a(I3
S'det'
p493
I0
tp494
a(I3
S'nn'
p495
I1
tp496
a(I3
S'nn'
p497
I1
tp498
a(I3
S'amod'
p499
I2
tp500
a(I5
S'nsubj'
p501
I3
tp502
a(I5
S'aux'
p503
I4
tp504
a(I10
S'det'
p505
I6
tp506
a(I10
S'nn'
p507
I7
tp508
a(I10
S'amod'
p509
I9
tp510
a(I5
S'dobj'
p511
I10
tp512
a(I12
S'nn'
p513
I12
tp514
a(I5
S'prep_to'
p515
I12
tp516
a(I13
S'det'
p517
I13
tp518
a(I12
S'tmod'
p519
I13
tp520
a(I15
S'aux'
p521
I14
tp522
a(I12
S'vmod'
p523
I15
tp524
a(I18
S'det'
p525
I16
tp526
a(I18
S'amod'
p527
I17
tp528
a(I22
S'poss'
p529
I18
tp530
a(I22
S'amod'
p531
I20
tp532
a(I22
S'amod'
p533
I21
tp534
a(I15
S'dobj'
p535
I22
tp536
aa(lp537
(I4
g3
I4
tp538
a(I2
S'det'
p539
I0
tp540
a(I2
S'amod'
p541
I1
tp542
a(I4
S'nsubjpass'
p543
I2
tp544
a(I4
S'auxpass'
p545
I3
tp546
a(I4
S'prep_as'
p547
I6
tp548
a(I13
S'det'
p549
I8
tp550
a(I13
S'nn'
p551
I9
tp552
a(I13
S'amod'
p553
I9
tp554
a(I13
S'nn'
p555
I9
tp556
a(I13
S'nn'
p557
I9
tp558
a(I13
S'num'
p559
I10
tp560
a(I13
S'nn'
p561
I11
tp562
a(I13
S'num'
p563
I12
tp564
a(I15
S'nsubj'
p565
I13
tp566
a(I15
S'aux'
p567
I14
tp568
a(I6
S'prepc_of'
p569
I15
tp570
a(I16
S'nn'
p571
I16
tp572
a(I19
S'poss'
p573
I16
tp574
a(I19
S'amod'
p575
I18
tp576
a(I15
S'dobj'
p577
I19
tp578
aa(lp579
(I4
g3
I4
tp580
a(I2
S'det'
p581
I0
tp582
a(I2
S'amod'
p583
I1
tp584
a(I4
S'nsubjpass'
p585
I2
tp586
a(I4
S'auxpass'
p587
I3
tp588
a(I4
S'prep_as'
p589
I6
tp590
a(I13
S'det'
p591
I8
tp592
a(I13
S'nn'
p593
I9
tp594
a(I13
S'amod'
p595
I9
tp596
a(I13
S'nn'
p597
I9
tp598
a(I13
S'nn'
p599
I9
tp600
a(I13
S'num'
p601
I10
tp602
a(I13
S'nn'
p603
I11
tp604
a(I13
S'num'
p605
I12
tp606
a(I15
S'nsubj'
p607
I13
tp608
a(I15
S'aux'
p609
I14
tp610
a(I6
S'prepc_of'
p611
I15
tp612
a(I16
S'nn'
p613
I16
tp614
a(I19
S'poss'
p615
I16
tp616
a(I19
S'amod'
p617
I18
tp618
a(I15
S'dobj'
p619
I19
tp620
aa(lp621
(I3
g3
I3
tp622
a(I2
S'det'
p623
I0
tp624
a(I2
S'nn'
p625
I1
tp626
a(I3
S'nsubj'
p627
I2
tp628
a(I5
S'det'
p629
I4
tp630
a(I14
S'nsubjpass'
p631
I5
tp632
a(I8
S'det'
p633
I7
tp634
a(I5
S'prep_by'
p635
I8
tp636
a(I12
S'nn'
p637
I10
tp638
a(I12
S'nn'
p639
I11
tp640
a(I8
S'prep_of'
p641
I12
tp642
a(I14
S'auxpass'
p643
I13
tp644
a(I3
S'ccomp'
p645
I14
tp646
a(I16
S'aux'
p647
I15
tp648
a(I14
S'xcomp'
p649
I16
tp650
a(I18
S'det'
p651
I18
tp652
a(I16
S'prep_for'
p653
I18
tp654
a(I18
S'vmod'
p655
I18
tp656
a(I18
S'tmod'
p657
I18
tp658
a(I18
S'num'
p659
I18
tp660
a(I18
S'num'
p661
I18
tp662
aa(lp663
(I2
g3
I2
tp664
a(I1
S'det'
p665
I0
tp666
a(I2
S'nsubj'
p667
I1
tp668
a(I7
S'mark'
p669
I3
tp670
a(I5
S'det'
p671
I4
tp672
a(I7
S'nsubj'
p673
I5
tp674
a(I7
S'aux'
p675
I6
tp676
a(I2
S'ccomp'
p677
I7
tp678
a(I12
S'det'
p679
I9
tp680
a(I12
S'nn'
p681
I10
tp682
a(I12
S'nn'
p683
I11
tp684
a(I7
S'prep_on'
p685
I12
tp686
a(I17
S'det'
p687
I14
tp688
a(I17
S'nn'
p689
I15
tp690
a(I17
S'amod'
p691
I16
tp692
a(I12
S'prep_in'
p693
I17
tp694
a(I20
S'nsubj'
p695
I18
tp696
a(I20
S'cop'
p697
I19
tp698
a(I12
S'rcmod'
p699
I20
tp700
a(I22
S'nn'
p701
I22
tp702
a(I25
S'poss'
p703
I22
tp704
a(I25
S'nn'
p705
I24
tp706
a(I20
S'prep_of'
p707
I25
tp708
aa(lp709
(I10
g3
I10
tp710
a(I2
S'det'
p711
I0
tp712
a(I2
S'nn'
p713
I1
tp714
a(I10
S'nsubj'
p715
I2
tp716
a(I7
S'det'
p717
I4
tp718
a(I7
S'nn'
p719
I5
tp720
a(I7
S'nn'
p721
I6
tp722
a(I2
S'prep_of'
p723
I7
tp724
a(I10
S'aux'
p725
I8
tp726
a(I10
S'advmod'
p727
I9
tp728
a(I13
S'det'
p729
I11
tp730
a(I13
S'amod'
p731
I12
tp732
a(I10
S'dobj'
p733
I13
tp734
a(I15
S'nn'
p735
I15
tp736
a(I19
S'poss'
p737
I15
tp738
a(I19
S'amod'
p739
I17
tp740
a(I19
S'amod'
p741
I18
tp742
a(I13
S'prep_of'
p743
I19
tp744
a(I13
S'dep'
p745
I20
tp746
aa(lp747
(I5
g3
I5
tp748
a(I1
S'det'
p749
I0
tp750
a(I5
S'nsubj'
p751
I1
tp752
a(I5
S'cop'
p753
I2
tp754
a(I5
S'det'
p755
I3
tp756
a(I5
S'nn'
p757
I4
tp758
a(I5
S'vmod'
p759
I6
tp760
a(I8
S'nn'
p761
I8
tp762
a(I6
S'agent'
p763
I8
tp764
a(I8
S'prep_in'
p765
I10
tp766
a(I10
S'num'
p767
I10
tp768
aa(lp769
(I5
g3
I5
tp770
a(I1
S'det'
p771
I0
tp772
a(I5
S'nsubj'
p773
I1
tp774
a(I5
S'cop'
p775
I2
tp776
a(I5
S'det'
p777
I3
tp778
a(I5
S'nn'
p779
I4
tp780
a(I5
S'vmod'
p781
I6
tp782
a(I8
S'nn'
p783
I8
tp784
a(I6
S'agent'
p785
I8
tp786
a(I8
S'prep_in'
p787
I10
tp788
a(I10
S'num'
p789
I10
tp790
aa(lp791
(I1
g3
I1
tp792
a(I1
S'nsubj'
p793
I0
tp794
a(I2
S'nn'
p795
I2
tp796
a(I4
S'poss'
p797
I2
tp798
a(I1
S'dobj'
p799
I4
tp800
a(I5
S'amod'
p801
I5
tp802
a(I1
S'tmod'
p803
I5
tp804
a(I1
S'conj_but'
p805
I7
tp806
a(I14
S'mark'
p807
I8
tp808
a(I10
S'det'
p809
I9
tp810
a(I14
S'nsubj'
p811
I10
tp812
a(I14
S'cop'
p813
I11
tp814
a(I14
S'neg'
p815
I12
tp816
a(I14
S'det'
p817
I13
tp818
a(I7
S'ccomp'
p819
I14
tp820
aa(lp821
(I2
g3
I2
tp822
a(I2
S'nsubj'
p823
I0
tp824
a(I2
S'advmod'
p825
I1
tp826
a(I4
S'det'
p827
I3
tp828
a(I7
S'nsubj'
p829
I4
tp830
a(I7
S'cop'
p831
I5
tp832
a(I7
S'neg'
p833
I6
tp834
a(I2
S'ccomp'
p835
I7
tp836
a(I11
S'det'
p837
I9
tp838
a(I11
S'amod'
p839
I10
tp840
a(I7
S'prep_of'
p841
I11
tp842
a(I13
S'nsubj'
p843
I12
tp844
a(I11
S'rcmod'
p845
I13
tp846
a(I15
S'aux'
p847
I14
tp848
a(I13
S'xcomp'
p849
I15
tp850
a(I15
S'prep'
p851
I16
tp852
aa(lp853
(I2
g3
I2
tp854
a(I2
S'nsubjpass'
p855
I0
tp856
a(I2
S'auxpass'
p857
I1
tp858
a(I2
S'prep_in'
p859
I4
tp860
a(I11
S'cop'
p861
I6
tp862
a(I8
S'det'
p863
I7
tp864
a(I11
S'poss'
p865
I8
tp866
a(I11
S'amod'
p867
I10
tp868
a(I2
S'conj_and'
p869
I11
tp870
aa(lp871
(I2
g3
I2
tp872
a(I0
S'nn'
p873
I0
tp874
a(I2
S'nsubj'
p875
I0
tp876
a(I2
S'aux'
p877
I1
tp878
a(I6
S'det'
p879
I3
tp880
a(I6
S'nn'
p881
I4
tp882
a(I6
S'amod'
p883
I5
tp884
a(I2
S'dobj'
p885
I6
tp886
a(I9
S'poss'
p887
I8
tp888
a(I2
S'prep_to'
p889
I9
tp890
aa(lp891
(I1
g3
I1
tp892
a(I0
S'nn'
p893
I0
tp894
a(I1
S'nsubj'
p895
I0
tp896
a(I6
S'poss'
p897
I2
tp898
a(I6
S'amod'
p899
I3
tp900
a(I6
S'amod'
p901
I4
tp902
a(I6
S'nn'
p903
I5
tp904
a(I1
S'dobj'
p905
I6
tp906
a(I6
S'prep_at'
p907
I8
tp908
a(I1
S'prep_in'
p909
I10
tp910
a(I1
S'prepc_for'
p911
I12
tp912
a(I15
S'num'
p913
I13
tp914
a(I15
S'amod'
p915
I14
tp916
a(I12
S'dobj'
p917
I15
tp918
a(I12
S'vmod'
p919
I16
tp920
a(I18
S'amod'
p921
I17
tp922
a(I16
S'dobj'
p923
I18
tp924
a(I21
S'nn'
p925
I20
tp926
a(I18
S'dep'
p927
I21
tp928
a(I25
S'det'
p929
I23
tp930
a(I25
S'num'
p931
I24
tp932
a(I21
S'prep_under'
p933
I25
tp934
a(I28
S'det'
p935
I27
tp936
a(I28
S'nn'
p937
I28
tp938
a(I16
S'prep_with'
p939
I28
tp940
aa(lp941
(I1
g3
I1
tp942
a(I1
S'det'
p943
I0
tp944
a(I1
S'dep'
p945
I3
tp946
a(I6
S'nn'
p947
I5
tp948
a(I8
S'nsubj'
p949
I6
tp950
a(I8
S'cop'
p951
I7
tp952
a(I1
S'dep'
p953
I8
tp954
a(I11
S'aux'
p955
I9
tp956
a(I11
S'auxpass'
p957
I10
tp958
a(I8
S'xcomp'
p959
I11
tp960
a(I11
S'agent'
p961
I13
tp962
aa(lp963
(I2
g3
I2
tp964
a(I2
S'nsubj'
p965
I0
tp966
a(I2
S'aux'
p967
I1
tp968
a(I2
S'prt'
p969
I3
tp970
a(I5
S'det'
p971
I4
tp972
a(I2
S'dobj'
p973
I5
tp974
a(I9
S'advmod'
p975
I7
tp976
a(I7
S'pobj'
p977
I8
tp978
a(I2
S'prep_until'
p979
I9
tp980
aa(lp981
(I1
g3
I1
tp982
a(I1
S'nsubj'
p983
I0
tp984
a(I4
S'nsubj'
p985
I2
tp986
a(I4
S'aux'
p987
I3
tp988
a(I1
S'ccomp'
p989
I4
tp990
a(I7
S'amod'
p991
I5
tp992
a(I7
S'nn'
p993
I6
tp994
a(I4
S'dobj'
p995
I7
tp996
a(I4
S'advmod'
p997
I8
tp998
a(I23
S'advmod'
p999
I9
tp1000
a(I12
S'det'
p1001
I10
tp1002
a(I12
S'amod'
p1003
I11
tp1004
a(I23
S'nsubjpass'
p1005
I12
tp1006
a(I15
S'det'
p1007
I14
tp1008
a(I12
S'prep_of'
p1009
I15
tp1010
a(I17
S'mark'
p1011
I16
tp1012
a(I15
S'dep'
p1013
I17
tp1014
a(I21
S'det'
p1015
I19
tp1016
a(I21
S'num'
p1017
I20
tp1018
a(I17
S'prep_in'
p1019
I21
tp1020
a(I23
S'auxpass'
p1021
I22
tp1022
a(I4
S'advcl'
p1023
I23
tp1024
aa(lp1025
(I0
g3
I0
tp1026
aa(lp1027
(I2
g3
I2
tp1028
a(I2
S'nn'
p1029
I0
tp1030
a(I2
S'nn'
p1031
I0
tp1032
a(I2
S'nn'
p1033
I1
tp1034
a(I2
S'dep'
p1035
I3
tp1036
aa(lp1037
(I0
g3
I0
tp1038
a(I0
S'dep'
p1039
I2
tp1040
a(I2
S'dep'
p1041
I4
tp1042
aa(lp1043
(I0
g3
I0
tp1044
a(I0
S'dep'
p1045
I2
tp1046
a(I2
S'dep'
p1047
I4
tp1048
aa(lp1049
(I2
g3
I2
tp1050
a(I1
S'nn'
p1051
I0
tp1052
a(I2
S'nsubj'
p1053
I1
tp1054
a(I2
S'prep_on'
p1055
I4
tp1056
a(I4
S'num'
p1057
I4
tp1058
a(I4
S'num'
p1059
I4
tp1060
a(I2
S'prep_in'
p1061
I6
tp1062
a(I9
S'poss'
p1063
I8
tp1064
a(I6
S'prep_of'
p1065
I9
tp1066
a(I11
S'aux'
p1067
I10
tp1068
a(I9
S'vmod'
p1069
I11
tp1070
a(I13
S'nn'
p1071
I12
tp1072
a(I11
S'dobj'
p1073
I13
tp1074
aa(lp1075
(I1
g3
I1
tp1076
a(I1
S'nsubj'
p1077
I0
tp1078
a(I4
S'det'
p1079
I2
tp1080
a(I4
S'nn'
p1081
I3
tp1082
a(I1
S'dobj'
p1083
I4
tp1084
a(I1
S'prep_as'
p1085
I6
tp1086
a(I9
S'det'
p1087
I8
tp1088
a(I6
S'prep_of'
p1089
I9
tp1090
a(I11
S'aux'
p1091
I10
tp1092
a(I1
S'vmod'
p1093
I11
tp1094
a(I14
S'det'
p1095
I12
tp1096
a(I14
S'amod'
p1097
I13
tp1098
a(I11
S'dobj'
p1099
I14
tp1100
aa(lp1101
(I2
g3
I2
tp1102
a(I1
S'nn'
p1103
I0
tp1104
a(I2
S'nsubj'
p1105
I1
tp1106
a(I2
S'prep_on'
p1107
I4
tp1108
a(I4
S'num'
p1109
I4
tp1110
a(I4
S'num'
p1111
I4
tp1112
a(I2
S'prep_in'
p1113
I6
tp1114
a(I9
S'poss'
p1115
I8
tp1116
a(I6
S'prep_of'
p1117
I9
tp1118
a(I11
S'aux'
p1119
I10
tp1120
a(I9
S'vmod'
p1121
I11
tp1122
a(I13
S'nn'
p1123
I12
tp1124
a(I11
S'dobj'
p1125
I13
tp1126
aa(lp1127
(I1
g3
I1
tp1128
a(I1
S'nsubj'
p1129
I0
tp1130
a(I4
S'det'
p1131
I2
tp1132
a(I4
S'nn'
p1133
I3
tp1134
a(I1
S'dobj'
p1135
I4
tp1136
a(I1
S'prep_as'
p1137
I6
tp1138
a(I9
S'det'
p1139
I8
tp1140
a(I6
S'prep_of'
p1141
I9
tp1142
a(I11
S'aux'
p1143
I10
tp1144
a(I1
S'vmod'
p1145
I11
tp1146
a(I14
S'det'
p1147
I12
tp1148
a(I14
S'amod'
p1149
I13
tp1150
a(I11
S'dobj'
p1151
I14
tp1152
aa(lp1153
(I4
g3
I4
tp1154
a(I2
S'det'
p1155
I0
tp1156
a(I2
S'amod'
p1157
I1
tp1158
a(I4
S'nsubj'
p1159
I2
tp1160
a(I4
S'aux'
p1161
I3
tp1162
a(I6
S'nn'
p1163
I5
tp1164
a(I4
S'dobj'
p1165
I6
tp1166
a(I6
S'prep_against'
p1167
I8
tp1168
a(I6
S'prep'
p1169
I9
tp1170
a(I11
S'nn'
p1171
I10
tp1172
a(I9
S'pobj'
p1173
I11
tp1174
a(I12
S'nn'
p1175
I12
tp1176
a(I11
S'dep'
p1177
I12
tp1178
a(I11
S'conj_and'
p1179
I15
tp1180
a(I19
S'poss'
p1181
I17
tp1182
a(I15
S'prep_of'
p1183
I19
tp1184
a(I9
S'dep'
p1185
I21
tp1186
a(I23
S'nn'
p1187
I22
tp1188
a(I21
S'dobj'
p1189
I23
tp1190
aa(lp1191
(I2
g3
I2
tp1192
a(I1
S'det'
p1193
I0
tp1194
a(I2
S'nsubj'
p1195
I1
tp1196
a(I4
S'det'
p1197
I3
tp1198
a(I2
S'dobj'
p1199
I4
tp1200
a(I4
S'prepc_of'
p1201
I6
tp1202
a(I6
S'advmod'
p1203
I7
tp1204
a(I4
S'amod'
p1205
I9
tp1206
a(I9
S'conj_and'
p1207
I11
tp1208
aa(lp1209
(I4
g3
I4
tp1210
a(I2
S'det'
p1211
I0
tp1212
a(I1
S'amod'
p1213
I1
tp1214
a(I2
S'amod'
p1215
I1
tp1216
a(I4
S'nsubj'
p1217
I2
tp1218
a(I4
S'aux'
p1219
I3
tp1220
a(I6
S'det'
p1221
I5
tp1222
a(I4
S'dobj'
p1223
I6
tp1224
a(I6
S'vmod'
p1225
I7
tp1226
a(I10
S'nn'
p1227
I9
tp1228
a(I7
S'agent'
p1229
I10
tp1230
a(I12
S'aux'
p1231
I11
tp1232
a(I7
S'xcomp'
p1233
I12
tp1234
a(I14
S'det'
p1235
I13
tp1236
a(I12
S'dobj'
p1237
I14
tp1238
a(I17
S'nn'
p1239
I16
tp1240
a(I14
S'prep_of'
p1241
I17
tp1242
aa(lp1243
(I14
g3
I14
tp1244
a(I1
S'det'
p1245
I0
tp1246
a(I2
S'nsubj'
p1247
I1
tp1248
a(I14
S'dep'
p1249
I2
tp1250
a(I2
S'prep_in'
p1251
I4
tp1252
a(I8
S'amod'
p1253
I6
tp1254
a(I8
S'amod'
p1255
I7
tp1256
a(I2
S'prep_to'
p1257
I8
tp1258
a(I11
S'det'
p1259
I10
tp1260
a(I8
S'prep_of'
p1261
I11
tp1262
a(I14
S'nsubjpass'
p1263
I12
tp1264
a(I14
S'auxpass'
p1265
I13
tp1266
a(I16
S'nn'
p1267
I16
tp1268
a(I14
S'prep_in'
p1269
I16
tp1270
aa(lp1271
(I7
g3
I7
tp1272
a(I1
S'det'
p1273
I0
tp1274
a(I7
S'nsubj'
p1275
I1
tp1276
a(I1
S'prep_of'
p1277
I3
tp1278
a(I3
S'prep_for'
p1279
I5
tp1280
a(I7
S'aux'
p1281
I6
tp1282
a(I11
S'det'
p1283
I8
tp1284
a(I10
S'advmod'
p1285
I9
tp1286
a(I11
S'amod'
p1287
I10
tp1288
a(I7
S'xcomp'
p1289
I11
tp1290
a(I14
S'det'
p1291
I13
tp1292
a(I7
S'prep_than'
p1293
I14
tp1294
a(I16
S'nn'
p1295
I15
tp1296
a(I16
S'nn'
p1297
I15
tp1298
a(I14
S'dep'
p1299
I16
tp1300
aa(lp1301
(I1
g3
I1
tp1302
a(I1
S'det'
p1303
I0
tp1304
a(I1
S'nn'
p1305
I1
tp1306
a(I3
S'nsubj'
p1307
I2
tp1308
a(I1
S'rcmod'
p1309
I3
tp1310
a(I5
S'aux'
p1311
I4
tp1312
a(I3
S'xcomp'
p1313
I5
tp1314
a(I8
S'dep'
p1315
I6
tp1316
a(I1
S'dep'
p1317
I8
tp1318
a(I10
S'nn'
p1319
I10
tp1320
a(I8
S'prep_by'
p1321
I10
tp1322
a(I10
S'conj_and'
p1323
I12
tp1324
a(I13
S'det'
p1325
I13
tp1326
a(I8
S'tmod'
p1327
I13
tp1328
aa(lp1329
(I4
g3
I4
tp1330
a(I1
S'det'
p1331
I0
tp1332
a(I4
S'nsubjpass'
p1333
I1
tp1334
a(I4
S'auxpass'
p1335
I2
tp1336
a(I4
S'advmod'
p1337
I3
tp1338
a(I4
S'agent'
p1339
I6
tp1340
a(I12
S'poss'
p1341
I8
tp1342
a(I12
S'amod'
p1343
I10
tp1344
a(I12
S'amod'
p1345
I11
tp1346
a(I6
S'appos'
p1347
I12
tp1348
aa(lp1349
(I1
g3
I1
tp1350
a(I1
S'nsubj'
p1351
I0
tp1352
a(I2
S'nn'
p1353
I2
tp1354
a(I1
S'dobj'
p1355
I2
tp1356
a(I4
S'aux'
p1357
I3
tp1358
a(I1
S'xcomp'
p1359
I4
tp1360
a(I7
S'det'
p1361
I5
tp1362
a(I7
S'amod'
p1363
I6
tp1364
a(I4
S'dobj'
p1365
I7
tp1366
a(I7
S'prep_of'
p1367
I9
tp1368
aa(lp1369
(I3
g3
I3
tp1370
a(I1
S'nn'
p1371
I0
tp1372
a(I3
S'nsubjpass'
p1373
I1
tp1374
a(I3
S'auxpass'
p1375
I2
tp1376
a(I7
S'det'
p1377
I5
tp1378
a(I7
S'amod'
p1379
I6
tp1380
a(I3
S'agent'
p1381
I7
tp1382
a(I11
S'poss'
p1383
I9
tp1384
a(I11
S'amod'
p1385
I10
tp1386
a(I7
S'prep_on'
p1387
I11
tp1388
aa(lp1389
(I10
g3
I10
tp1390
a(I1
S'det'
p1391
I0
tp1392
a(I10
S'ccomp'
p1393
I1
tp1394
a(I1
S'prep'
p1395
I2
tp1396
a(I4
S'amod'
p1397
I3
tp1398
a(I4
S'amod'
p1399
I3
tp1400
a(I2
S'dep'
p1401
I4
tp1402
a(I4
S'dep'
p1403
I5
tp1404
a(I1
S'rcmod'
p1405
I7
tp1406
a(I10
S'nsubj'
p1407
I9
tp1408
a(I12
S'aux'
p1409
I11
tp1410
a(I10
S'xcomp'
p1411
I12
tp1412
a(I14
S'det'
p1413
I13
tp1414
a(I12
S'dobj'
p1415
I14
tp1416
a(I20
S'nn'
p1417
I16
tp1418
a(I20
S'nn'
p1419
I16
tp1420
a(I20
S'nn'
p1421
I18
tp1422
a(I20
S'nn'
p1423
I19
tp1424
a(I14
S'prep_of'
p1425
I20
tp1426
a(I29
S'det'
p1427
I22
tp1428
a(I29
S'amod'
p1429
I23
tp1430
a(I29
S'nn'
p1431
I24
tp1432
a(I29
S'nn'
p1433
I25
tp1434
a(I29
S'nn'
p1435
I26
tp1436
a(I29
S'num'
p1437
I27
tp1438
a(I29
S'nn'
p1439
I28
tp1440
a(I14
S'conj_and'
p1441
I29
tp1442
a(I29
S'prep_on'
p1443
I31
tp1444
a(I31
S'num'
p1445
I31
tp1446
a(I31
S'num'
p1447
I31
tp1448
aa(lp1449
(I6
g3
I6
tp1450
a(I1
S'det'
p1451
I0
tp1452
a(I6
S'nsubj'
p1453
I1
tp1454
a(I5
S'det'
p1455
I3
tp1456
a(I4
S'amod'
p1457
I4
tp1458
a(I5
S'amod'
p1459
I4
tp1460
a(I1
S'prep_of'
p1461
I5
tp1462
a(I8
S'det'
p1463
I7
tp1464
a(I6
S'dobj'
p1465
I8
tp1466
a(I11
S'advmod'
p1467
I10
tp1468
a(I8
S'prepc_of'
p1469
I11
tp1470
a(I12
S'nn'
p1471
I12
tp1472
a(I11
S'dobj'
p1473
I12
tp1474
a(I16
S'poss'
p1475
I14
tp1476
a(I16
S'nn'
p1477
I15
tp1478
a(I12
S'conj_and'
p1479
I16
tp1480
a(I11
S'prep_as'
p1481
I18
tp1482
aa(lp1483
(I1
g3
I1
tp1484
a(I1
S'det'
p1485
I0
tp1486
a(I4
S'nn'
p1487
I3
tp1488
a(I5
S'nsubj'
p1489
I4
tp1490
a(I1
S'dep'
p1491
I5
tp1492
a(I9
S'mark'
p1493
I6
tp1494
a(I8
S'amod'
p1495
I7
tp1496
a(I8
S'amod'
p1497
I7
tp1498
a(I9
S'nsubj'
p1499
I8
tp1500
a(I5
S'ccomp'
p1501
I9
tp1502
a(I9
S'prep_under'
p1503
I11
tp1504
aa(lp1505
(I3
g3
I3
tp1506
a(I1
S'det'
p1507
I0
tp1508
a(I3
S'nsubjpass'
p1509
I1
tp1510
a(I3
S'auxpass'
p1511
I2
tp1512
a(I5
S'aux'
p1513
I4
tp1514
a(I3
S'xcomp'
p1515
I5
tp1516
a(I5
S'dobj'
p1517
I6
tp1518
a(I8
S'aux'
p1519
I7
tp1520
a(I5
S'xcomp'
p1521
I8
tp1522
a(I10
S'det'
p1523
I9
tp1524
a(I8
S'dobj'
p1525
I10
tp1526
aa(lp1527
(I3
g3
I3
tp1528
a(I1
S'nn'
p1529
I0
tp1530
a(I3
S'nsubj'
p1531
I1
tp1532
a(I3
S'aux'
p1533
I2
tp1534
a(I6
S'det'
p1535
I4
tp1536
a(I6
S'amod'
p1537
I5
tp1538
a(I3
S'xcomp'
p1539
I6
tp1540
a(I9
S'nn'
p1541
I8
tp1542
a(I6
S'prep_for'
p1543
I9
tp1544
aa(lp1545
(I2
g3
I2
tp1546
a(I2
S'nsubj'
p1547
I0
tp1548
a(I2
S'cop'
p1549
I1
tp1550
a(I2
S'prep_of'
p1551
I4
tp1552
a(I4
S'advmod'
p1553
I5
tp1554
a(I8
S'nn'
p1555
I6
tp1556
a(I8
S'amod'
p1557
I7
tp1558
a(I4
S'dep'
p1559
I8
tp1560
a(I11
S'det'
p1561
I10
tp1562
a(I8
S'prep_in'
p1563
I11
tp1564
aa(lp1565
(I3
g3
I3
tp1566
a(I2
S'amod'
p1567
I0
tp1568
a(I2
S'amod'
p1569
I0
tp1570
a(I2
S'nn'
p1571
I1
tp1572
a(I3
S'nsubj'
p1573
I2
tp1574
a(I7
S'amod'
p1575
I4
tp1576
a(I7
S'nn'
p1577
I5
tp1578
a(I7
S'nn'
p1579
I6
tp1580
a(I3
S'dobj'
p1581
I7
tp1582
a(I8
S'amod'
p1583
I8
tp1584
a(I7
S'tmod'
p1585
I8
tp1586
a(I11
S'det'
p1587
I10
tp1588
a(I7
S'prep_in'
p1589
I11
tp1590
a(I14
S'nn'
p1591
I13
tp1592
a(I11
S'prep_against'
p1593
I14
tp1594
a(I14
S'vmod'
p1595
I15
tp1596
a(I15
S'prepc_of'
p1597
I17
tp1598
a(I21
S'poss'
p1599
I18
tp1600
a(I21
S'nn'
p1601
I20
tp1602
a(I17
S'dobj'
p1603
I21
tp1604
a(I3
S'prep_in'
p1605
I23
tp1606
aa(lp1607
(I4
g3
I4
tp1608
a(I2
S'det'
p1609
I0
tp1610
a(I2
S'amod'
p1611
I1
tp1612
a(I4
S'nsubjpass'
p1613
I2
tp1614
a(I4
S'auxpass'
p1615
I3
tp1616
a(I4
S'prep_to'
p1617
I6
tp1618
a(I6
S'prep_against'
p1619
I8
tp1620
aa(lp1621
(I2
g3
I2
tp1622
a(I1
S'det'
p1623
I0
tp1624
a(I2
S'nsubj'
p1625
I1
tp1626
a(I5
S'det'
p1627
I3
tp1628
a(I5
S'amod'
p1629
I4
tp1630
a(I7
S'nsubj'
p1631
I5
tp1632
a(I7
S'aux'
p1633
I6
tp1634
a(I2
S'ccomp'
p1635
I7
tp1636
a(I11
S'det'
p1637
I8
tp1638
a(I11
S'nn'
p1639
I9
tp1640
a(I11
S'nn'
p1641
I10
tp1642
a(I7
S'dobj'
p1643
I11
tp1644
a(I17
S'mark'
p1645
I13
tp1646
a(I17
S'nsubj'
p1647
I14
tp1648
a(I17
S'cop'
p1649
I15
tp1650
a(I17
S'amod'
p1651
I16
tp1652
a(I7
S'conj_and'
p1653
I17
tp1654
aa(lp1655
(I1
g3
I1
tp1656
a(I1
S'nsubj'
p1657
I0
tp1658
a(I4
S'det'
p1659
I3
tp1660
a(I1
S'prep_on'
p1661
I4
tp1662
a(I7
S'num'
p1663
I6
tp1664
a(I4
S'prep_of'
p1665
I7
tp1666
aa(lp1667
(I1
g3
I1
tp1668
a(I1
S'nsubj'
p1669
I0
tp1670
a(I4
S'det'
p1671
I3
tp1672
a(I1
S'prep_on'
p1673
I4
tp1674
a(I7
S'num'
p1675
I6
tp1676
a(I4
S'prep_of'
p1677
I7
tp1678
aa(lp1679
(I2
g3
I2
tp1680
a(I1
S'det'
p1681
I0
tp1682
a(I2
S'nsubj'
p1683
I1
tp1684
a(I5
S'det'
p1685
I3
tp1686
a(I5
S'amod'
p1687
I4
tp1688
a(I8
S'nsubj'
p1689
I5
tp1690
a(I8
S'aux'
p1691
I6
tp1692
a(I8
S'neg'
p1693
I7
tp1694
a(I2
S'ccomp'
p1695
I8
tp1696
a(I10
S'det'
p1697
I9
tp1698
a(I8
S'dobj'
p1699
I10
tp1700
a(I13
S'poss'
p1701
I12
tp1702
a(I8
S'prep_for'
p1703
I13
tp1704
a(I13
S'prepc_of'
p1705
I15
tp1706
a(I15
S'dobj'
p1707
I16
tp1708
a(I16
S'conj_and'
p1709
I18
tp1710
aa(lp1711
(I2
g3
I2
tp1712
a(I1
S'det'
p1713
I0
tp1714
a(I2
S'nsubj'
p1715
I1
tp1716
a(I5
S'det'
p1717
I3
tp1718
a(I5
S'amod'
p1719
I4
tp1720
a(I8
S'nsubj'
p1721
I5
tp1722
a(I8
S'aux'
p1723
I6
tp1724
a(I8
S'neg'
p1725
I7
tp1726
a(I2
S'ccomp'
p1727
I8
tp1728
a(I10
S'det'
p1729
I9
tp1730
a(I8
S'dobj'
p1731
I10
tp1732
a(I13
S'poss'
p1733
I12
tp1734
a(I8
S'prep_for'
p1735
I13
tp1736
a(I13
S'prepc_of'
p1737
I15
tp1738
a(I15
S'dobj'
p1739
I16
tp1740
a(I16
S'conj_and'
p1741
I18
tp1742
aa(lp1743
(I3
g3
I3
tp1744
a(I2
S'det'
p1745
I0
tp1746
a(I2
S'nn'
p1747
I1
tp1748
a(I3
S'nsubj'
p1749
I2
tp1750
a(I5
S'aux'
p1751
I4
tp1752
a(I3
S'xcomp'
p1753
I5
tp1754
a(I7
S'det'
p1755
I6
tp1756
a(I5
S'dobj'
p1757
I7
tp1758
a(I9
S'nn'
p1759
I9
tp1760
a(I7
S'prep_of'
p1761
I9
tp1762
a(I9
S'conj_and'
p1763
I11
tp1764
a(I14
S'det'
p1765
I13
tp1766
a(I16
S'poss'
p1767
I14
tp1768
a(I9
S'prep_against'
p1769
I16
tp1770
a(I16
S'prep_of'
p1771
I18
tp1772
a(I18
S'conj_and'
p1773
I20
tp1774
a(I22
S'nn'
p1775
I22
tp1776
a(I24
S'poss'
p1777
I22
tp1778
a(I16
S'prep_of'
p1779
I24
tp1780
aa(lp1781
(I2
g3
I2
tp1782
a(I1
S'det'
p1783
I0
tp1784
a(I2
S'nsubj'
p1785
I1
tp1786
a(I5
S'nsubj'
p1787
I3
tp1788
a(I5
S'aux'
p1789
I4
tp1790
a(I2
S'ccomp'
p1791
I5
tp1792
a(I7
S'det'
p1793
I6
tp1794
a(I5
S'dobj'
p1795
I7
tp1796
a(I5
S'prep_next'
p1797
I8
tp1798
a(I11
S'quantmod'
p1799
I10
tp1800
a(I15
S'num'
p1801
I11
tp1802
a(I15
S'nn'
p1803
I12
tp1804
a(I15
S'nn'
p1805
I13
tp1806
a(I15
S'nn'
p1807
I14
tp1808
a(I8
S'prep_of'
p1809
I15
tp1810
a(I19
S'det'
p1811
I17
tp1812
a(I19
S'nn'
p1813
I18
tp1814
a(I15
S'prep_in'
p1815
I19
tp1816
a(I5
S'conj_and'
p1817
I21
tp1818
a(I23
S'det'
p1819
I22
tp1820
a(I21
S'dobj'
p1821
I23
tp1822
a(I25
S'aux'
p1823
I24
tp1824
a(I23
S'vmod'
p1825
I25
tp1826
a(I27
S'det'
p1827
I26
tp1828
a(I25
S'dobj'
p1829
I27
tp1830
aa(lp1831
(I6
g3
I6
tp1832
a(I1
S'nn'
p1833
I0
tp1834
a(I6
S'nsubj'
p1835
I1
tp1836
a(I3
S'nn'
p1837
I3
tp1838
a(I3
S'nn'
p1839
I3
tp1840
a(I1
S'prep_at'
p1841
I3
tp1842
a(I3
S'det'
p1843
I3
tp1844
a(I3
S'dep'
p1845
I3
tp1846
a(I3
S'dep'
p1847
I5
tp1848
a(I9
S'nsubj'
p1849
I7
tp1850
a(I9
S'aux'
p1851
I8
tp1852
a(I6
S'ccomp'
p1853
I9
tp1854
a(I11
S'quantmod'
p1855
I10
tp1856
a(I13
S'num'
p1857
I11
tp1858
a(I13
S'amod'
p1859
I12
tp1860
a(I9
S'dobj'
p1861
I13
tp1862
a(I16
S'amod'
p1863
I15
tp1864
a(I13
S'prep_of'
p1865
I16
tp1866
a(I19
S'nn'
p1867
I18
tp1868
a(I9
S'prep_with'
p1869
I19
tp1870
aa(lp1871
(I1
g3
I1
tp1872
a(I1
S'amod'
p1873
I0
tp1874
a(I1
S'dep'
p1875
I3
tp1876
a(I5
S'nn'
p1877
I4
tp1878
a(I5
S'nn'
p1879
I5
tp1880
a(I11
S'nsubj'
p1881
I5
tp1882
a(I10
S'amod'
p1883
I7
tp1884
a(I10
S'nn'
p1885
I8
tp1886
a(I10
S'nn'
p1887
I9
tp1888
a(I5
S'conj_and'
p1889
I10
tp1890
a(I3
S'ccomp'
p1891
I11
tp1892
a(I13
S'aux'
p1893
I12
tp1894
a(I11
S'xcomp'
p1895
I13
tp1896
a(I16
S'det'
p1897
I14
tp1898
a(I15
S'amod'
p1899
I15
tp1900
a(I16
S'amod'
p1901
I15
tp1902
a(I13
S'dobj'
p1903
I16
tp1904
a(I16
S'prepc_of'
p1905
I18
tp1906
a(I18
S'dobj'
p1907
I19
tp1908
aa(lp1909
(I3
g3
I3
tp1910
a(I2
S'nn'
p1911
I0
tp1912
a(I2
S'nn'
p1913
I1
tp1914
a(I2
S'nn'
p1915
I2
tp1916
a(I3
S'nsubj'
p1917
I2
tp1918
a(I5
S'det'
p1919
I4
tp1920
a(I3
S'dobj'
p1921
I5
tp1922
a(I6
S'amod'
p1923
I6
tp1924
a(I3
S'tmod'
p1925
I6
tp1926
a(I8
S'nn'
p1927
I8
tp1928
a(I10
S'poss'
p1929
I8
tp1930
a(I10
S'nn'
p1931
I10
tp1932
a(I3
S'prep_to'
p1933
I10
tp1934
a(I3
S'xcomp'
p1935
I11
tp1936
a(I11
S'dobj'
p1937
I12
tp1938
a(I12
S'vmod'
p1939
I13
tp1940
a(I18
S'amod'
p1941
I15
tp1942
a(I15
S'conj_and'
p1943
I17
tp1944
a(I13
S'prep_for'
p1945
I18
tp1946
a(I18
S'prep_against'
p1947
I20
tp1948
a(I13
S'prep_to'
p1949
I22
tp1950
aa(lp1951
(I1
g3
I1
tp1952
a(I1
S'nsubj'
p1953
I0
tp1954
a(I5
S'det'
p1955
I4
tp1956
a(I5
S'nn'
p1957
I5
tp1958
a(I1
S'prep_ahead_of'
p1959
I5
tp1960
a(I7
S'nsubj'
p1961
I6
tp1962
a(I5
S'rcmod'
p1963
I7
tp1964
a(I7
S'tmod'
p1965
I8
tp1966
a(I8
S'num'
p1967
I8
tp1968
a(I8
S'num'
p1969
I8
tp1970
aa(lp1971
(I0
g3
I0
tp1972
a(I3
S'det'
p1973
I2
tp1974
a(I3
S'amod'
p1975
I3
tp1976
a(I3
S'nn'
p1977
I3
tp1978
a(I0
S'prep_of'
p1979
I3
tp1980
a(I8
S'det'
p1981
I5
tp1982
a(I8
S'nn'
p1983
I6
tp1984
a(I8
S'nn'
p1985
I7
tp1986
a(I0
S'conj_and'
p1987
I8
tp1988
a(I9
S'nn'
p1989
I9
tp1990
a(I8
S'dep'
p1991
I9
tp1992
a(I12
S'nsubj'
p1993
I11
tp1994
a(I0
S'dep'
p1995
I12
tp1996
a(I16
S'nsubj'
p1997
I13
tp1998
a(I16
S'aux'
p1999
I14
tp2000
a(I16
S'neg'
p2001
I15
tp2002
a(I12
S'ccomp'
p2003
I16
tp2004
a(I20
S'det'
p2005
I18
tp2006
a(I20
S'nn'
p2007
I19
tp2008
a(I16
S'prep_in'
p2009
I20
tp2010
a(I24
S'det'
p2011
I22
tp2012
a(I24
S'amod'
p2013
I23
tp2014
a(I20
S'prep_of'
p2015
I24
tp2016
aa(lp2017
(I2
g3
I2
tp2018
a(I0
S'amod'
p2019
I0
tp2020
a(I1
S'amod'
p2021
I0
tp2022
a(I2
S'nsubj'
p2023
I1
tp2024
a(I4
S'amod'
p2025
I3
tp2026
a(I9
S'nsubjpass'
p2027
I4
tp2028
a(I4
S'vmod'
p2029
I5
tp2030
a(I5
S'prep_for'
p2031
I7
tp2032
a(I9
S'auxpass'
p2033
I8
tp2034
a(I2
S'ccomp'
p2035
I9
tp2036
a(I9
S'advmod'
p2037
I10
tp2038
a(I9
S'agent'
p2039
I12
tp2040
aa(lp2041
(I1
g3
I1
tp2042
a(I1
S'nsubj'
p2043
I0
tp2044
a(I3
S'amod'
p2045
I2
tp2046
a(I9
S'nsubjpass'
p2047
I3
tp2048
a(I6
S'det'
p2049
I5
tp2050
a(I3
S'prep_in'
p2051
I6
tp2052
a(I9
S'auxpass'
p2053
I7
tp2054
a(I9
S'neg'
p2055
I8
tp2056
a(I1
S'ccomp'
p2057
I9
tp2058
aa(lp2059
(I1
g3
I1
tp2060
a(I1
S'nsubj'
p2061
I0
tp2062
a(I1
S'dobj'
p2063
I2
tp2064
a(I1
S'conj_and'
p2065
I4
tp2066
a(I4
S'dobj'
p2067
I5
tp2068
a(I8
S'det'
p2069
I7
tp2070
a(I4
S'prep_by'
p2071
I8
tp2072
a(I1
S'conj_and'
p2073
I10
tp2074
a(I10
S'dobj'
p2075
I11
tp2076
a(I10
S'prep_in'
p2077
I13
tp2078
a(I16
S'amod'
p2079
I15
tp2080
a(I10
S'prep_with'
p2081
I16
tp2082
a(I18
S'aux'
p2083
I17
tp2084
a(I10
S'vmod'
p2085
I18
tp2086
a(I20
S'det'
p2087
I19
tp2088
a(I21
S'npadvmod'
p2089
I20
tp2090
a(I22
S'advmod'
p2091
I21
tp2092
a(I18
S'dobj'
p2093
I22
tp2094
aa(lp2095
(I3
g3
I3
tp2096
a(I1
S'nn'
p2097
I0
tp2098
a(I3
S'nsubjpass'
p2099
I1
tp2100
a(I3
S'auxpass'
p2101
I2
tp2102
a(I5
S'aux'
p2103
I4
tp2104
a(I3
S'xcomp'
p2105
I5
tp2106
a(I5
S'conj_or'
p2107
I7
tp2108
a(I10
S'det'
p2109
I9
tp2110
a(I5
S'prep_into'
p2111
I10
tp2112
a(I13
S'advmod'
p2113
I11
tp2114
a(I13
S'nsubj'
p2115
I12
tp2116
a(I5
S'advcl'
p2117
I13
tp2118
a(I16
S'det'
p2119
I14
tp2120
a(I16
S'num'
p2121
I15
tp2122
a(I13
S'dep'
p2123
I16
tp2124
aa(lp2125
(I4
g3
I4
tp2126
a(I2
S'neg'
p2127
I0
tp2128
a(I2
S'amod'
p2129
I1
tp2130
a(I4
S'nsubjpass'
p2131
I2
tp2132
a(I4
S'auxpass'
p2133
I3
tp2134
a(I7
S'det'
p2135
I6
tp2136
a(I7
S'nn'
p2137
I7
tp2138
a(I4
S'prep_for'
p2139
I7
tp2140
aa(lp2141
(I2
g3
I2
tp2142
a(I1
S'det'
p2143
I0
tp2144
a(I2
S'nsubj'
p2145
I1
tp2146
a(I4
S'det'
p2147
I3
tp2148
a(I7
S'nsubj'
p2149
I4
tp2150
a(I7
S'aux'
p2151
I5
tp2152
a(I7
S'advmod'
p2153
I6
tp2154
a(I2
S'ccomp'
p2155
I7
tp2156
a(I7
S'prep_in'
p2157
I9
tp2158
aa(lp2159
(I3
g3
I3
tp2160
a(I2
S'det'
p2161
I0
tp2162
a(I2
S'amod'
p2163
I1
tp2164
a(I3
S'nsubj'
p2165
I2
tp2166
a(I9
S'mark'
p2167
I4
tp2168
a(I9
S'mark'
p2169
I5
tp2170
a(I6
S'number'
p2171
I6
tp2172
a(I7
S'num'
p2173
I6
tp2174
a(I9
S'nsubjpass'
p2175
I7
tp2176
a(I9
S'auxpass'
p2177
I8
tp2178
a(I3
S'advcl'
p2179
I9
tp2180
a(I11
S'det'
p2181
I10
tp2182
a(I9
S'tmod'
p2183
I11
tp2184
a(I9
S'prep_for'
p2185
I13
tp2186
a(I15
S'nn'
p2187
I15
tp2188
a(I13
S'prep_in'
p2189
I15
tp2190
a(I18
S'num'
p2191
I17
tp2192
a(I15
S'conj_and'
p2193
I18
tp2194
a(I15
S'prep_of'
p2195
I20
tp2196
a(I15
S'amod'
p2197
I21
tp2198
a(I21
S'tmod'
p2199
I22
tp2200
a(I21
S'cc'
p2201
I23
tp2202
a(I21
S'advmod'
p2203
I24
tp2204
a(I27
S'num'
p2205
I26
tp2206
a(I32
S'nsubj'
p2207
I27
tp2208
a(I30
S'amod'
p2209
I29
tp2210
a(I27
S'prep_of'
p2211
I30
tp2212
a(I32
S'aux'
p2213
I31
tp2214
a(I9
S'conj_and'
p2215
I32
tp2216
a(I34
S'nn'
p2217
I33
tp2218
a(I32
S'dobj'
p2219
I34
tp2220
aa(lp2221
(I3
g3
I3
tp2222
a(I2
S'det'
p2223
I0
tp2224
a(I2
S'amod'
p2225
I1
tp2226
a(I3
S'nsubj'
p2227
I2
tp2228
a(I9
S'mark'
p2229
I4
tp2230
a(I9
S'mark'
p2231
I5
tp2232
a(I6
S'number'
p2233
I6
tp2234
a(I7
S'num'
p2235
I6
tp2236
a(I9
S'nsubjpass'
p2237
I7
tp2238
a(I9
S'auxpass'
p2239
I8
tp2240
a(I3
S'advcl'
p2241
I9
tp2242
a(I11
S'det'
p2243
I10
tp2244
a(I9
S'tmod'
p2245
I11
tp2246
a(I9
S'prep_for'
p2247
I13
tp2248
a(I15
S'nn'
p2249
I15
tp2250
a(I13
S'prep_in'
p2251
I15
tp2252
a(I18
S'num'
p2253
I17
tp2254
a(I15
S'conj_and'
p2255
I18
tp2256
a(I15
S'prep_of'
p2257
I20
tp2258
a(I15
S'amod'
p2259
I21
tp2260
a(I21
S'tmod'
p2261
I22
tp2262
a(I21
S'cc'
p2263
I23
tp2264
a(I21
S'advmod'
p2265
I24
tp2266
a(I27
S'num'
p2267
I26
tp2268
a(I32
S'nsubj'
p2269
I27
tp2270
a(I30
S'amod'
p2271
I29
tp2272
a(I27
S'prep_of'
p2273
I30
tp2274
a(I32
S'aux'
p2275
I31
tp2276
a(I9
S'conj_and'
p2277
I32
tp2278
a(I34
S'nn'
p2279
I33
tp2280
a(I32
S'dobj'
p2281
I34
tp2282
aa(lp2283
(I0
g3
I0
tp2284
aa(lp2285
(I0
g3
I0
tp2286
a(I3
S'nn'
p2287
I2
tp2288
a(I0
S'prep_('
p2289
I3
tp2290
a(I6
S'nn'
p2291
I5
tp2292
a(I0
S'dep'
p2293
I6
tp2294
a(I6
S'prep_in'
p2295
I8
tp2296
aa(lp2297
(I0
g3
I0
tp2298
a(I0
S'dep'
p2299
I2
tp2300
a(I2
S'dep'
p2301
I4
tp2302
a(I2
S'dep'
p2303
I6
tp2304
a(I6
S'conj_and'
p2305
I8
tp2306
a(I2
S'dep'
p2307
I10
tp2308
a(I10
S'dep'
p2309
I12
tp2310
aa(lp2311
(I2
g3
I2
tp2312
a(I1
S'amod'
p2313
I0
tp2314
a(I2
S'nsubj'
p2315
I1
tp2316
a(I2
S'prep_in'
p2317
I4
tp2318
a(I2
S'prep_despite'
p2319
I6
tp2320
a(I6
S'amod'
p2321
I7
tp2322
a(I10
S'amod'
p2323
I9
tp2324
a(I6
S'prep_of'
p2325
I10
tp2326
aa(lp2327
(I2
g3
I2
tp2328
a(I1
S'amod'
p2329
I0
tp2330
a(I2
S'nsubj'
p2331
I1
tp2332
a(I2
S'prep_in'
p2333
I4
tp2334
a(I2
S'prep_despite'
p2335
I6
tp2336
a(I6
S'vmod'
p2337
I7
tp2338
a(I10
S'amod'
p2339
I9
tp2340
a(I7
S'prep_of'
p2341
I10
tp2342
a(I14
S'det'
p2343
I12
tp2344
a(I14
S'nn'
p2345
I13
tp2346
a(I7
S'agent'
p2347
I14
tp2348
aa(lp2349
(I12
g3
I12
tp2350
a(I12
S'nsubj'
p2351
I0
tp2352
a(I0
S'conj_and'
p2353
I2
tp2354
a(I0
S'vmod'
p2355
I3
tp2356
a(I5
S'det'
p2357
I4
tp2358
a(I3
S'dobj'
p2359
I5
tp2360
a(I9
S'amod'
p2361
I7
tp2362
a(I9
S'amod'
p2363
I8
tp2364
a(I5
S'prep_of'
p2365
I9
tp2366
a(I9
S'prep_in'
p2367
I11
tp2368
a(I14
S'aux'
p2369
I13
tp2370
a(I12
S'xcomp'
p2371
I14
tp2372
a(I16
S'det'
p2373
I15
tp2374
a(I14
S'dobj'
p2375
I16
tp2376
a(I16
S'prep_in'
p2377
I18
tp2378
a(I23
S'det'
p2379
I20
tp2380
a(I23
S'amod'
p2381
I21
tp2382
a(I23
S'amod'
p2383
I22
tp2384
a(I25
S'poss'
p2385
I23
tp2386
a(I14
S'prep_despite'
p2387
I25
tp2388
a(I30
S'det'
p2389
I27
tp2390
a(I30
S'amod'
p2391
I28
tp2392
a(I30
S'nn'
p2393
I29
tp2394
a(I14
S'prep_at'
p2395
I30
tp2396
a(I33
S'amod'
p2397
I32
tp2398
a(I30
S'prep_of'
p2399
I33
tp2400
aa(lp2401
(I7
g3
I7
tp2402
a(I7
S'prep_around'
p2403
I1
tp2404
a(I4
S'amod'
p2405
I2
tp2406
a(I4
S'amod'
p2407
I3
tp2408
a(I7
S'nsubjpass'
p2409
I4
tp2410
a(I7
S'aux'
p2411
I5
tp2412
a(I7
S'auxpass'
p2413
I6
tp2414
a(I7
S'prep_since'
p2415
I9
tp2416
a(I12
S'amod'
p2417
I11
tp2418
a(I7
S'prep_under'
p2419
I12
tp2420
a(I15
S'amod'
p2421
I14
tp2422
a(I12
S'prep_against'
p2423
I15
tp2424
a(I18
S'amod'
p2425
I17
tp2426
a(I12
S'conj_and'
p2427
I18
tp2428
a(I18
S'vmod'
p2429
I19
tp2430
a(I22
S'nn'
p2431
I21
tp2432
a(I22
S'nn'
p2433
I22
tp2434
a(I19
S'agent'
p2435
I22
tp2436
a(I24
S'det'
p2437
I24
tp2438
a(I22
S'prep_during'
p2439
I24
tp2440
aa(lp2441
(I7
g3
I7
tp2442
a(I2
S'det'
p2443
I0
tp2444
a(I2
S'amod'
p2445
I1
tp2446
a(I7
S'nsubj'
p2447
I2
tp2448
a(I2
S'prep_against'
p2449
I4
tp2450
a(I4
S'conj_and'
p2451
I6
tp2452
a(I10
S'mark'
p2453
I8
tp2454
a(I9
S'nn'
p2455
I9
tp2456
a(I10
S'nsubj'
p2457
I9
tp2458
a(I7
S'advcl'
p2459
I10
tp2460
a(I13
S'num'
p2461
I11
tp2462
a(I13
S'amod'
p2463
I12
tp2464
a(I10
S'dobj'
p2465
I13
tp2466
aa(lp2467
(I5
g3
I5
tp2468
a(I4
S'det'
p2469
I0
tp2470
a(I4
S'amod'
p2471
I1
tp2472
a(I1
S'dep'
p2473
I2
tp2474
a(I4
S'amod'
p2475
I3
tp2476
a(I5
S'nsubj'
p2477
I4
tp2478
a(I10
S'det'
p2479
I6
tp2480
a(I10
S'num'
p2481
I7
tp2482
a(I10
S'nn'
p2483
I8
tp2484
a(I10
S'amod'
p2485
I9
tp2486
a(I5
S'dobj'
p2487
I10
tp2488
a(I10
S'vmod'
p2489
I11
tp2490
a(I13
S'amod'
p2491
I12
tp2492
a(I11
S'dobj'
p2493
I13
tp2494
a(I13
S'prep_in'
p2495
I15
tp2496
a(I20
S'dobj'
p2497
I16
tp2498
a(I19
S'det'
p2499
I17
tp2500
a(I19
S'amod'
p2501
I18
tp2502
a(I20
S'nsubj'
p2503
I19
tp2504
a(I13
S'rcmod'
p2505
I20
tp2506
a(I20
S'prepc_of'
p2507
I22
tp2508
a(I26
S'det'
p2509
I23
tp2510
a(I26
S'amod'
p2511
I24
tp2512
a(I24
S'tmod'
p2513
I25
tp2514
a(I22
S'dobj'
p2515
I26
tp2516
a(I30
S'det'
p2517
I28
tp2518
a(I30
S'amod'
p2519
I29
tp2520
a(I26
S'prep_on'
p2521
I30
tp2522
aa(lp2523
(I3
g3
I3
tp2524
a(I1
S'amod'
p2525
I0
tp2526
a(I3
S'nsubj'
p2527
I1
tp2528
a(I3
S'aux'
p2529
I2
tp2530
a(I17
S'mark'
p2531
I4
tp2532
a(I6
S'neg'
p2533
I5
tp2534
a(I17
S'nsubjpass'
p2535
I6
tp2536
a(I6
S'conj_or'
p2537
I8
tp2538
a(I11
S'det'
p2539
I10
tp2540
a(I6
S'prep_from'
p2541
I11
tp2542
a(I6
S'vmod'
p2543
I12
tp2544
a(I14
S'amod'
p2545
I13
tp2546
a(I12
S'dobj'
p2547
I14
tp2548
a(I17
S'aux'
p2549
I15
tp2550
a(I17
S'auxpass'
p2551
I16
tp2552
a(I3
S'ccomp'
p2553
I17
tp2554
a(I19
S'nn'
p2555
I19
tp2556
a(I21
S'poss'
p2557
I19
tp2558
a(I17
S'prep_after'
p2559
I21
tp2560
a(I21
S'dep'
p2561
I22
tp2562
a(I26
S'det'
p2563
I23
tp2564
a(I26
S'num'
p2565
I24
tp2566
a(I26
S'amod'
p2567
I25
tp2568
a(I22
S'dobj'
p2569
I26
tp2570
aa(lp2571
(I3
g3
I3
tp2572
a(I1
S'amod'
p2573
I0
tp2574
a(I3
S'nsubj'
p2575
I1
tp2576
a(I3
S'aux'
p2577
I2
tp2578
a(I17
S'mark'
p2579
I4
tp2580
a(I6
S'neg'
p2581
I5
tp2582
a(I17
S'nsubjpass'
p2583
I6
tp2584
a(I6
S'conj_or'
p2585
I8
tp2586
a(I11
S'det'
p2587
I10
tp2588
a(I6
S'prep_from'
p2589
I11
tp2590
a(I6
S'vmod'
p2591
I12
tp2592
a(I14
S'amod'
p2593
I13
tp2594
a(I12
S'dobj'
p2595
I14
tp2596
a(I17
S'aux'
p2597
I15
tp2598
a(I17
S'auxpass'
p2599
I16
tp2600
a(I3
S'ccomp'
p2601
I17
tp2602
a(I19
S'nn'
p2603
I19
tp2604
a(I21
S'poss'
p2605
I19
tp2606
a(I17
S'prep_after'
p2607
I21
tp2608
a(I21
S'dep'
p2609
I22
tp2610
a(I26
S'det'
p2611
I23
tp2612
a(I26
S'num'
p2613
I24
tp2614
a(I26
S'amod'
p2615
I25
tp2616
a(I22
S'dobj'
p2617
I26
tp2618
aa(lp2619
(I9
g3
I9
tp2620
a(I0
S'nn'
p2621
I0
tp2622
a(I2
S'poss'
p2623
I0
tp2624
a(I9
S'nsubjpass'
p2625
I2
tp2626
a(I2
S'dep'
p2627
I3
tp2628
a(I7
S'det'
p2629
I4
tp2630
a(I7
S'num'
p2631
I5
tp2632
a(I7
S'amod'
p2633
I6
tp2634
a(I3
S'dobj'
p2635
I7
tp2636
a(I9
S'auxpass'
p2637
I8
tp2638
a(I12
S'det'
p2639
I11
tp2640
a(I12
S'nn'
p2641
I12
tp2642
a(I9
S'agent'
p2643
I12
tp2644
aa(lp2645
(I1
g3
I1
tp2646
a(I0
S'nn'
p2647
I0
tp2648
a(I1
S'nsubj'
p2649
I0
tp2650
a(I32
S'mark'
p2651
I2
tp2652
a(I5
S'det'
p2653
I4
tp2654
a(I32
S'prep_under'
p2655
I5
tp2656
a(I8
S'nsubjpass'
p2657
I6
tp2658
a(I8
S'auxpass'
p2659
I7
tp2660
a(I5
S'rcmod'
p2661
I8
tp2662
a(I8
S'advmod'
p2663
I9
tp2664
a(I9
S'prep_at'
p2665
I11
tp2666
a(I8
S'prep_on'
p2667
I13
tp2668
a(I15
S'det'
p2669
I14
tp2670
a(I32
S'nsubjpass'
p2671
I15
tp2672
a(I15
S'appos'
p2673
I17
tp2674
a(I20
S'amod'
p2675
I19
tp2676
a(I15
S'appos'
p2677
I20
tp2678
a(I15
S'appos'
p2679
I22
tp2680
a(I15
S'appos'
p2681
I24
tp2682
a(I27
S'det'
p2683
I26
tp2684
a(I24
S'prep_of'
p2685
I27
tp2686
a(I15
S'vmod'
p2687
I28
tp2688
a(I30
S'amod'
p2689
I29
tp2690
a(I28
S'dobj'
p2691
I30
tp2692
a(I32
S'auxpass'
p2693
I31
tp2694
a(I1
S'ccomp'
p2695
I32
tp2696
a(I32
S'conj_and'
p2697
I34
tp2698
aa(lp2699
(I6
g3
I6
tp2700
a(I0
S'nn'
p2701
I0
tp2702
a(I6
S'nsubj'
p2703
I0
tp2704
a(I6
S'cop'
p2705
I1
tp2706
a(I6
S'det'
p2707
I2
tp2708
a(I6
S'amod'
p2709
I3
tp2710
a(I6
S'amod'
p2711
I4
tp2712
a(I6
S'nn'
p2713
I5
tp2714
aa(lp2715
(I1
g3
I1
tp2716
a(I0
S'nn'
p2717
I0
tp2718
a(I1
S'nsubj'
p2719
I0
tp2720
a(I9
S'mark'
p2721
I2
tp2722
a(I6
S'poss'
p2723
I3
tp2724
a(I6
S'amod'
p2725
I5
tp2726
a(I9
S'nsubjpass'
p2727
I6
tp2728
a(I9
S'aux'
p2729
I7
tp2730
a(I9
S'auxpass'
p2731
I8
tp2732
a(I1
S'ccomp'
p2733
I9
tp2734
a(I11
S'aux'
p2735
I10
tp2736
a(I9
S'xcomp'
p2737
I11
tp2738
a(I13
S'det'
p2739
I12
tp2740
a(I11
S'dobj'
p2741
I13
tp2742
a(I16
S'det'
p2743
I15
tp2744
a(I11
S'prep_in'
p2745
I16
tp2746
a(I19
S'nsubjpass'
p2747
I17
tp2748
a(I19
S'auxpass'
p2749
I18
tp2750
a(I16
S'rcmod'
p2751
I19
tp2752
a(I19
S'prep_on'
p2753
I21
tp2754
a(I24
S'det'
p2755
I23
tp2756
a(I27
S'poss'
p2757
I24
tp2758
a(I27
S'amod'
p2759
I26
tp2760
a(I28
S'nsubj'
p2761
I27
tp2762
a(I9
S'conj_and'
p2763
I28
tp2764
a(I31
S'det'
p2765
I30
tp2766
a(I28
S'prep_in'
p2767
I31
tp2768
a(I31
S'prepc_of'
p2769
I33
tp2770
a(I33
S'dobj'
p2771
I34
tp2772
aa(lp2773
(I4
g3
I4
tp2774
a(I3
S'nn'
p2775
I0
tp2776
a(I3
S'nn'
p2777
I1
tp2778
a(I3
S'nn'
p2779
I2
tp2780
a(I3
S'nn'
p2781
I3
tp2782
a(I4
S'nsubj'
p2783
I3
tp2784
a(I14
S'mark'
p2785
I5
tp2786
a(I7
S'det'
p2787
I6
tp2788
a(I14
S'nsubjpass'
p2789
I7
tp2790
a(I7
S'vmod'
p2791
I8
tp2792
a(I10
S'amod'
p2793
I9
tp2794
a(I8
S'dobj'
p2795
I10
tp2796
a(I14
S'aux'
p2797
I11
tp2798
a(I14
S'neg'
p2799
I12
tp2800
a(I14
S'auxpass'
p2801
I13
tp2802
a(I4
S'ccomp'
p2803
I14
tp2804
a(I16
S'aux'
p2805
I15
tp2806
a(I14
S'xcomp'
p2807
I16
tp2808
a(I19
S'det'
p2809
I18
tp2810
a(I16
S'prep_in'
p2811
I19
tp2812
aa(lp2813
(I1
g3
I1
tp2814
a(I0
S'nn'
p2815
I0
tp2816
a(I1
S'nsubj'
p2817
I0
tp2818
a(I5
S'mark'
p2819
I2
tp2820
a(I5
S'nsubj'
p2821
I3
tp2822
a(I5
S'aux'
p2823
I4
tp2824
a(I1
S'ccomp'
p2825
I5
tp2826
a(I12
S'mark'
p2827
I6
tp2828
a(I9
S'det'
p2829
I7
tp2830
a(I9
S'amod'
p2831
I8
tp2832
a(I12
S'nsubj'
p2833
I9
tp2834
a(I12
S'cop'
p2835
I10
tp2836
a(I12
S'advmod'
p2837
I11
tp2838
a(I5
S'advcl'
p2839
I12
tp2840
a(I15
S'det'
p2841
I14
tp2842
a(I12
S'prep_in'
p2843
I15
tp2844
a(I18
S'det'
p2845
I17
tp2846
a(I12
S'prep_despite'
p2847
I18
tp2848
aa(lp2849
(I1
g3
I1
tp2850
a(I0
S'nn'
p2851
I0
tp2852
a(I1
S'nsubj'
p2853
I0
tp2854
a(I5
S'mark'
p2855
I2
tp2856
a(I5
S'nsubj'
p2857
I3
tp2858
a(I5
S'aux'
p2859
I4
tp2860
a(I1
S'ccomp'
p2861
I5
tp2862
a(I12
S'mark'
p2863
I6
tp2864
a(I9
S'det'
p2865
I7
tp2866
a(I9
S'amod'
p2867
I8
tp2868
a(I12
S'nsubj'
p2869
I9
tp2870
a(I12
S'cop'
p2871
I10
tp2872
a(I12
S'advmod'
p2873
I11
tp2874
a(I5
S'advcl'
p2875
I12
tp2876
a(I15
S'det'
p2877
I14
tp2878
a(I12
S'prep_in'
p2879
I15
tp2880
a(I18
S'det'
p2881
I17
tp2882
a(I12
S'prep_despite'
p2883
I18
tp2884
aa(lp2885
(I14
g3
I14
tp2886
a(I1
S'det'
p2887
I0
tp2888
a(I14
S'nsubj'
p2889
I1
tp2890
a(I5
S'dep'
p2891
I3
tp2892
a(I1
S'dep'
p2893
I5
tp2894
a(I1
S'conj_and'
p2895
I7
tp2896
a(I11
S'dep'
p2897
I9
tp2898
a(I7
S'dep'
p2899
I11
tp2900
a(I14
S'aux'
p2901
I12
tp2902
a(I14
S'advmod'
p2903
I13
tp2904
a(I16
S'poss'
p2905
I15
tp2906
a(I14
S'dobj'
p2907
I16
tp2908
a(I19
S'det'
p2909
I18
tp2910
a(I14
S'prep_through'
p2911
I19
tp2912
a(I19
S'prep_of'
p2913
I21
tp2914
a(I21
S'conj_and'
p2915
I23
tp2916
a(I25
S'advmod'
p2917
I24
tp2918
a(I21
S'amod'
p2919
I25
tp2920
a(I21
S'prep_in'
p2921
I27
tp2922
aa(lp2923
(I15
g3
I15
tp2924
a(I1
S'amod'
p2925
I0
tp2926
a(I15
S'nsubj'
p2927
I1
tp2928
a(I1
S'dep'
p2929
I2
tp2930
a(I2
S'prep_to'
p2931
I4
tp2932
a(I2
S'conj_and'
p2933
I6
tp2934
a(I11
S'det'
p2935
I8
tp2936
a(I11
S'nn'
p2937
I9
tp2938
a(I11
S'nn'
p2939
I9
tp2940
a(I11
S'nn'
p2941
I10
tp2942
a(I6
S'prep_on'
p2943
I11
tp2944
a(I2
S'dobj'
p2945
I12
tp2946
a(I15
S'aux'
p2947
I13
tp2948
a(I15
S'advmod'
p2949
I14
tp2950
a(I17
S'amod'
p2951
I16
tp2952
a(I15
S'dobj'
p2953
I17
tp2954
a(I17
S'conj_and'
p2955
I19
tp2956
a(I15
S'vmod'
p2957
I20
tp2958
a(I20
S'dobj'
p2959
I21
tp2960
a(I23
S'nsubj'
p2961
I22
tp2962
a(I21
S'rcmod'
p2963
I23
tp2964
a(I26
S'amod'
p2965
I25
tp2966
a(I23
S'prep_against'
p2967
I26
tp2968
a(I15
S'conj_and'
p2969
I28
tp2970
a(I28
S'prep_for'
p2971
I30
tp2972
a(I33
S'det'
p2973
I32
tp2974
a(I28
S'prep_in'
p2975
I33
tp2976
a(I33
S'prep_of'
p2977
I35
tp2978
aa(lp2979
(I0
g3
I0
tp2980
a(I2
S'amod'
p2981
I2
tp2982
a(I0
S'dep'
p2983
I2
tp2984
a(I4
S'auxpass'
p2985
I3
tp2986
a(I2
S'rcmod'
p2987
I4
tp2988
a(I4
S'prep_from'
p2989
I6
tp2990
a(I9
S'quantmod'
p2991
I8
tp2992
a(I4
S'agent'
p2993
I9
tp2994
a(I12
S'nn'
p2995
I11
tp2996
a(I0
S'dep'
p2997
I12
tp2998
a(I12
S'dep'
p2999
I13
tp3000
a(I17
S'nn'
p3001
I15
tp3002
a(I17
S'nn'
p3003
I16
tp3004
a(I0
S'dep'
p3005
I17
tp3006
a(I20
S'det'
p3007
I19
tp3008
a(I20
S'nn'
p3009
I20
tp3010
a(I17
S'prep_of'
p3011
I20
tp3012
a(I23
S'amod'
p3013
I22
tp3014
a(I20
S'conj_and'
p3015
I23
tp3016
aa(lp3017
(I3
g3
I3
tp3018
a(I3
S'nsubj'
p3019
I0
tp3020
a(I3
S'aux'
p3021
I1
tp3022
a(I3
S'advmod'
p3023
I2
tp3024
a(I6
S'det'
p3025
I5
tp3026
a(I6
S'nn'
p3027
I6
tp3028
a(I3
S'prep_with'
p3029
I6
tp3030
a(I9
S'amod'
p3031
I8
tp3032
a(I3
S'prep_on'
p3033
I9
tp3034
a(I12
S'det'
p3035
I11
tp3036
a(I9
S'prep_in'
p3037
I12
tp3038
a(I15
S'amod'
p3039
I14
tp3040
a(I12
S'dep'
p3041
I15
tp3042
aa(lp3043
(I11
g3
I11
tp3044
a(I1
S'amod'
p3045
I0
tp3046
a(I2
S'nsubj'
p3047
I1
tp3048
a(I11
S'dep'
p3049
I2
tp3050
a(I5
S'mark'
p3051
I3
tp3052
a(I5
S'nsubj'
p3053
I4
tp3054
a(I2
S'ccomp'
p3055
I5
tp3056
a(I8
S'amod'
p3057
I7
tp3058
a(I5
S'prep_of'
p3059
I8
tp3060
a(I9
S'nn'
p3061
I9
tp3062
a(I11
S'nsubj'
p3063
I9
tp3064
a(I11
S'aux'
p3065
I10
tp3066
a(I13
S'amod'
p3067
I12
tp3068
a(I11
S'dobj'
p3069
I13
tp3070
a(I11
S'prepc_in'
p3071
I15
tp3072
a(I19
S'poss'
p3073
I16
tp3074
a(I19
S'nn'
p3075
I18
tp3076
a(I15
S'dobj'
p3077
I19
tp3078
aa(lp3079
(I2
g3
I2
tp3080
a(I2
S'nsubj'
p3081
I0
tp3082
a(I2
S'aux'
p3083
I1
tp3084
a(I4
S'poss'
p3085
I3
tp3086
a(I2
S'dobj'
p3087
I4
tp3088
a(I10
S'poss'
p3089
I6
tp3090
a(I10
S'amod'
p3091
I8
tp3092
a(I10
S'nn'
p3093
I9
tp3094
a(I2
S'prep_to'
p3095
I10
tp3096
a(I2
S'advmod'
p3097
I11
tp3098
aa(lp3099
(I0
g3
I0
tp3100
aa(lp3101
(I0
g3
I0
tp3102
a(I3
S'num'
p3103
I1
tp3104
a(I3
S'nn'
p3105
I2
tp3106
a(I0
S'dep'
p3107
I3
tp3108
a(I3
S'dep'
p3109
I5
tp3110
a(I8
S'num'
p3111
I6
tp3112
a(I8
S'nn'
p3113
I7
tp3114
a(I5
S'dep'
p3115
I8
tp3116
aa(lp3117
(I0
g3
I0
tp3118
a(I0
S'dep'
p3119
I2
tp3120
aa(lp3121
(I8
g3
I8
tp3122
a(I2
S'det'
p3123
I0
tp3124
a(I2
S'nn'
p3125
I1
tp3126
a(I3
S'nsubj'
p3127
I2
tp3128
a(I8
S'dep'
p3129
I3
tp3130
a(I6
S'nn'
p3131
I5
tp3132
a(I3
S'prep_as'
p3133
I6
tp3134
a(I8
S'aux'
p3135
I7
tp3136
a(I8
S'dobj'
p3137
I9
tp3138
a(I13
S'poss'
p3139
I11
tp3140
a(I8
S'prep_as'
p3141
I13
tp3142
a(I16
S'num'
p3143
I14
tp3144
a(I16
S'nn'
p3145
I15
tp3146
a(I8
S'nsubj'
p3147
I16
tp3148
aa(lp3149
(I4
g3
I4
tp3150
a(I1
S'quantmod'
p3151
I0
tp3152
a(I3
S'num'
p3153
I1
tp3154
a(I3
S'nn'
p3155
I2
tp3156
a(I4
S'nsubj'
p3157
I3
tp3158
a(I6
S'det'
p3159
I5
tp3160
a(I4
S'dobj'
p3161
I6
tp3162
aa(lp3163
(I8
g3
I8
tp3164
a(I2
S'det'
p3165
I0
tp3166
a(I2
S'nn'
p3167
I1
tp3168
a(I3
S'nsubj'
p3169
I2
tp3170
a(I8
S'dep'
p3171
I3
tp3172
a(I6
S'nn'
p3173
I5
tp3174
a(I3
S'prep_as'
p3175
I6
tp3176
a(I8
S'aux'
p3177
I7
tp3178
a(I8
S'dobj'
p3179
I9
tp3180
a(I13
S'poss'
p3181
I11
tp3182
a(I8
S'prep_as'
p3183
I13
tp3184
a(I16
S'num'
p3185
I14
tp3186
a(I16
S'nn'
p3187
I15
tp3188
a(I8
S'nsubj'
p3189
I16
tp3190
aa(lp3191
(I4
g3
I4
tp3192
a(I1
S'quantmod'
p3193
I0
tp3194
a(I3
S'num'
p3195
I1
tp3196
a(I3
S'nn'
p3197
I2
tp3198
a(I4
S'nsubj'
p3199
I3
tp3200
a(I6
S'det'
p3201
I5
tp3202
a(I4
S'dobj'
p3203
I6
tp3204
aa(lp3205
(I3
g3
I3
tp3206
a(I1
S'det'
p3207
I0
tp3208
a(I3
S'nsubj'
p3209
I1
tp3210
a(I3
S'aux'
p3211
I2
tp3212
a(I3
S'xcomp'
p3213
I4
tp3214
a(I7
S'nn'
p3215
I6
tp3216
a(I4
S'prep_of'
p3217
I7
tp3218
aa(lp3219
(I4
g3
I4
tp3220
a(I2
S'neg'
p3221
I0
tp3222
a(I2
S'amod'
p3223
I1
tp3224
a(I4
S'nsubj'
p3225
I2
tp3226
a(I4
S'aux'
p3227
I3
tp3228
a(I4
S'prep_as'
p3229
I6
tp3230
a(I6
S'prep_in'
p3231
I8
tp3232
aa(lp3233
(I9
g3
I9
tp3234
a(I1
S'det'
p3235
I0
tp3236
a(I9
S'nsubj'
p3237
I1
tp3238
a(I4
S'det'
p3239
I3
tp3240
a(I1
S'prep_on'
p3241
I4
tp3242
a(I7
S'poss'
p3243
I6
tp3244
a(I4
S'prep_of'
p3245
I7
tp3246
a(I9
S'cop'
p3247
I8
tp3248
aa(lp3249
(I3
g3
I3
tp3250
a(I1
S'nn'
p3251
I0
tp3252
a(I3
S'nsubjpass'
p3253
I1
tp3254
a(I3
S'auxpass'
p3255
I2
tp3256
a(I6
S'amod'
p3257
I5
tp3258
a(I3
S'prep_as'
p3259
I6
tp3260
a(I6
S'prep_in'
p3261
I8
tp3262
aa(lp3263
(I3
g3
I3
tp3264
a(I3
S'nsubjpass'
p3265
I0
tp3266
a(I3
S'aux'
p3267
I1
tp3268
a(I3
S'auxpass'
p3269
I2
tp3270
a(I6
S'det'
p3271
I5
tp3272
a(I3
S'prep_in'
p3273
I6
tp3274
a(I3
S'dobj'
p3275
I8
tp3276
a(I8
S'amod'
p3277
I9
tp3278
a(I12
S'nn'
p3279
I11
tp3280
a(I9
S'dep'
p3281
I12
tp3282
a(I15
S'nsubj'
p3283
I13
tp3284
a(I15
S'aux'
p3285
I14
tp3286
a(I12
S'rcmod'
p3287
I15
tp3288
a(I18
S'det'
p3289
I17
tp3290
a(I15
S'prep_in'
p3291
I18
tp3292
a(I21
S'quantmod'
p3293
I20
tp3294
a(I23
S'num'
p3295
I21
tp3296
a(I23
S'amod'
p3297
I22
tp3298
a(I18
S'prep_of'
p3299
I23
tp3300
aa(lp3301
(I3
g3
I3
tp3302
a(I3
S'nsubjpass'
p3303
I0
tp3304
a(I3
S'aux'
p3305
I1
tp3306
a(I3
S'auxpass'
p3307
I2
tp3308
a(I6
S'det'
p3309
I5
tp3310
a(I3
S'prep_in'
p3311
I6
tp3312
a(I3
S'dobj'
p3313
I8
tp3314
a(I8
S'amod'
p3315
I9
tp3316
a(I12
S'nn'
p3317
I11
tp3318
a(I9
S'dep'
p3319
I12
tp3320
a(I15
S'nsubj'
p3321
I13
tp3322
a(I15
S'aux'
p3323
I14
tp3324
a(I12
S'rcmod'
p3325
I15
tp3326
a(I18
S'det'
p3327
I17
tp3328
a(I15
S'prep_in'
p3329
I18
tp3330
a(I21
S'quantmod'
p3331
I20
tp3332
a(I23
S'num'
p3333
I21
tp3334
a(I23
S'amod'
p3335
I22
tp3336
a(I18
S'prep_of'
p3337
I23
tp3338
aa(lp3339
(I1
g3
I1
tp3340
a(I1
S'expl'
p3341
I0
tp3342
a(I3
S'amod'
p3343
I2
tp3344
a(I1
S'nsubj'
p3345
I3
tp3346
a(I6
S'det'
p3347
I5
tp3348
a(I3
S'prep_over'
p3349
I6
tp3350
aa(lp3351
(I4
g3
I4
tp3352
a(I1
S'det'
p3353
I0
tp3354
a(I3
S'poss'
p3355
I1
tp3356
a(I4
S'nsubj'
p3357
I3
tp3358
a(I7
S'det'
p3359
I6
tp3360
a(I4
S'prep_in'
p3361
I7
tp3362
a(I7
S'dep'
p3363
I9
tp3364
aa(lp3365
(I2
g3
I2
tp3366
a(I2
S'nsubj'
p3367
I0
tp3368
a(I2
S'aux'
p3369
I1
tp3370
a(I9
S'nsubj'
p3371
I3
tp3372
a(I5
S'det'
p3373
I4
tp3374
a(I9
S'poss'
p3375
I5
tp3376
a(I9
S'nn'
p3377
I7
tp3378
a(I9
S'num'
p3379
I8
tp3380
a(I2
S'xcomp'
p3381
I9
tp3382
aa(lp3383
(I2
g3
I2
tp3384
a(I2
S'nsubj'
p3385
I0
tp3386
a(I2
S'aux'
p3387
I1
tp3388
a(I9
S'nsubj'
p3389
I3
tp3390
a(I5
S'det'
p3391
I4
tp3392
a(I9
S'poss'
p3393
I5
tp3394
a(I9
S'nn'
p3395
I7
tp3396
a(I9
S'num'
p3397
I8
tp3398
a(I2
S'xcomp'
p3399
I9
tp3400
aa(lp3401
(I0
g3
I0
tp3402
a(I0
S'dep'
p3403
I2
tp3404
a(I2
S'amod'
p3405
I3
tp3406
a(I7
S'nn'
p3407
I5
tp3408
a(I7
S'amod'
p3409
I6
tp3410
a(I2
S'conj_and'
p3411
I7
tp3412
a(I12
S'poss'
p3413
I9
tp3414
a(I12
S'nn'
p3415
I10
tp3416
a(I12
S'nn'
p3417
I11
tp3418
a(I7
S'prep_in'
p3419
I12
tp3420
a(I14
S'advmod'
p3421
I13
tp3422
a(I12
S'vmod'
p3423
I14
tp3424
a(I17
S'det'
p3425
I16
tp3426
a(I14
S'agent'
p3427
I17
tp3428
a(I17
S'prep_of'
p3429
I17
tp3430
a(I20
S'amod'
p3431
I19
tp3432
a(I20
S'nn'
p3433
I20
tp3434
a(I17
S'prep_on'
p3435
I20
tp3436
a(I26
S'mark'
p3437
I21
tp3438
a(I24
S'det'
p3439
I22
tp3440
a(I24
S'amod'
p3441
I23
tp3442
a(I26
S'nsubjpass'
p3443
I24
tp3444
a(I26
S'auxpass'
p3445
I25
tp3446
a(I14
S'ccomp'
p3447
I26
tp3448
a(I26
S'prep_across'
p3449
I28
tp3450
a(I31
S'preconj'
p3451
I30
tp3452
a(I28
S'prep_for'
p3453
I31
tp3454
a(I31
S'conj_and'
p3455
I33
tp3456
aa(lp3457
(I0
g3
I0
tp3458
a(I0
S'dep'
p3459
I2
tp3460
a(I2
S'amod'
p3461
I3
tp3462
a(I7
S'nn'
p3463
I5
tp3464
a(I7
S'amod'
p3465
I6
tp3466
a(I2
S'conj_and'
p3467
I7
tp3468
a(I12
S'poss'
p3469
I9
tp3470
a(I12
S'nn'
p3471
I10
tp3472
a(I12
S'nn'
p3473
I11
tp3474
a(I7
S'prep_in'
p3475
I12
tp3476
a(I14
S'advmod'
p3477
I13
tp3478
a(I12
S'vmod'
p3479
I14
tp3480
a(I17
S'det'
p3481
I16
tp3482
a(I14
S'agent'
p3483
I17
tp3484
a(I17
S'prep_of'
p3485
I17
tp3486
a(I20
S'amod'
p3487
I19
tp3488
a(I20
S'nn'
p3489
I20
tp3490
a(I17
S'prep_on'
p3491
I20
tp3492
a(I26
S'mark'
p3493
I21
tp3494
a(I24
S'det'
p3495
I22
tp3496
a(I24
S'amod'
p3497
I23
tp3498
a(I26
S'nsubjpass'
p3499
I24
tp3500
a(I26
S'auxpass'
p3501
I25
tp3502
a(I14
S'ccomp'
p3503
I26
tp3504
a(I26
S'prep_across'
p3505
I28
tp3506
a(I31
S'preconj'
p3507
I30
tp3508
a(I28
S'prep_for'
p3509
I31
tp3510
a(I31
S'conj_and'
p3511
I33
tp3512
aa(lp3513
(I9
g3
I9
tp3514
a(I1
S'nn'
p3515
I0
tp3516
a(I9
S'nsubj'
p3517
I1
tp3518
a(I1
S'conj_and'
p3519
I3
tp3520
a(I1
S'conj_and'
p3521
I5
tp3522
a(I8
S'nn'
p3523
I7
tp3524
a(I1
S'conj_and'
p3525
I8
tp3526
a(I11
S'det'
p3527
I10
tp3528
a(I9
S'dobj'
p3529
I11
tp3530
a(I13
S'aux'
p3531
I12
tp3532
a(I9
S'xcomp'
p3533
I13
tp3534
a(I13
S'dobj'
p3535
I14
tp3536
a(I17
S'advmod'
p3537
I16
tp3538
a(I13
S'prepc_through'
p3539
I17
tp3540
a(I17
S'tmod'
p3541
I18
tp3542
aa(lp3543
(I9
g3
I9
tp3544
a(I1
S'nn'
p3545
I0
tp3546
a(I9
S'nsubj'
p3547
I1
tp3548
a(I1
S'conj_and'
p3549
I3
tp3550
a(I1
S'conj_and'
p3551
I5
tp3552
a(I8
S'nn'
p3553
I7
tp3554
a(I1
S'conj_and'
p3555
I8
tp3556
a(I11
S'det'
p3557
I10
tp3558
a(I9
S'dobj'
p3559
I11
tp3560
a(I13
S'aux'
p3561
I12
tp3562
a(I9
S'xcomp'
p3563
I13
tp3564
a(I13
S'dobj'
p3565
I14
tp3566
a(I17
S'advmod'
p3567
I16
tp3568
a(I13
S'prepc_through'
p3569
I17
tp3570
a(I17
S'tmod'
p3571
I18
tp3572
aa(lp3573
(I1
g3
I1
tp3574
a(I1
S'nsubj'
p3575
I0
tp3576
a(I1
S'dobj'
p3577
I2
tp3578
a(I4
S'aux'
p3579
I3
tp3580
a(I1
S'xcomp'
p3581
I4
tp3582
a(I7
S'nn'
p3583
I6
tp3584
a(I4
S'prep_through'
p3585
I7
tp3586
aa(lp3587
(I1
g3
I1
tp3588
a(I1
S'nsubj'
p3589
I0
tp3590
a(I1
S'dobj'
p3591
I2
tp3592
a(I4
S'aux'
p3593
I3
tp3594
a(I1
S'xcomp'
p3595
I4
tp3596
a(I6
S'nsubj'
p3597
I5
tp3598
a(I4
S'ccomp'
p3599
I6
tp3600
a(I8
S'det'
p3601
I7
tp3602
a(I6
S'tmod'
p3603
I8
tp3604
aa(lp3605
(I0
g3
I0
tp3606
aa(lp3607
(I0
g3
I0
tp3608
a(I3
S'num'
p3609
I1
tp3610
a(I3
S'nn'
p3611
I2
tp3612
a(I0
S'dep'
p3613
I3
tp3614
a(I8
S'nn'
p3615
I5
tp3616
a(I8
S'nn'
p3617
I6
tp3618
a(I8
S'nn'
p3619
I7
tp3620
a(I3
S'dep'
p3621
I8
tp3622
a(I10
S'num'
p3623
I10
tp3624
a(I8
S'prep_of'
p3625
I10
tp3626
a(I0
S'dep'
p3627
I11
tp3628
a(I11
S'num'
p3629
I12
tp3630
aa(lp3631
(I0
g3
I0
tp3632
a(I0
S'dep'
p3633
I2
tp3634
a(I2
S'dep'
p3635
I4
tp3636
a(I4
S'dep'
p3637
I6
tp3638
a(I4
S'dep'
p3639
I8
tp3640
a(I8
S'dep'
p3641
I10
tp3642
aa(lp3643
(I3
g3
I3
tp3644
a(I2
S'det'
p3645
I0
tp3646
a(I2
S'nn'
p3647
I1
tp3648
a(I3
S'nsubj'
p3649
I2
tp3650
a(I15
S'mark'
p3651
I4
tp3652
a(I6
S'num'
p3653
I5
tp3654
a(I15
S'nsubj'
p3655
I6
tp3656
a(I11
S'amod'
p3657
I8
tp3658
a(I11
S'amod'
p3659
I9
tp3660
a(I11
S'nn'
p3661
I10
tp3662
a(I6
S'prep_of'
p3663
I11
tp3664
a(I13
S'det'
p3665
I12
tp3666
a(I13
S'poss'
p3667
I13
tp3668
a(I14
S'nsubj'
p3669
I13
tp3670
a(I11
S'rcmod'
p3671
I14
tp3672
a(I3
S'ccomp'
p3673
I15
tp3674
aa(lp3675
(I2
g3
I2
tp3676
a(I1
S'det'
p3677
I0
tp3678
a(I2
S'nsubj'
p3679
I1
tp3680
a(I4
S'det'
p3681
I3
tp3682
a(I4
S'poss'
p3683
I4
tp3684
a(I7
S'poss'
p3685
I4
tp3686
a(I7
S'amod'
p3687
I6
tp3688
a(I8
S'nsubj'
p3689
I7
tp3690
a(I8
S'nn'
p3691
I8
tp3692
a(I2
S'xcomp'
p3693
I8
tp3694
aa(lp3695
(I0
g3
I0
tp3696
a(I0
S'num'
p3697
I0
tp3698
a(I0
S'num'
p3699
I0
tp3700
a(I4
S'det'
p3701
I2
tp3702
a(I4
S'nn'
p3703
I3
tp3704
a(I5
S'nsubj'
p3705
I4
tp3706
a(I0
S'dep'
p3707
I5
tp3708
a(I17
S'mark'
p3709
I6
tp3710
a(I8
S'num'
p3711
I7
tp3712
a(I17
S'nsubj'
p3713
I8
tp3714
a(I13
S'amod'
p3715
I10
tp3716
a(I13
S'amod'
p3717
I11
tp3718
a(I13
S'nn'
p3719
I12
tp3720
a(I8
S'prep_of'
p3721
I13
tp3722
a(I15
S'det'
p3723
I14
tp3724
a(I15
S'poss'
p3725
I15
tp3726
a(I16
S'nsubj'
p3727
I15
tp3728
a(I13
S'rcmod'
p3729
I16
tp3730
a(I5
S'ccomp'
p3731
I17
tp3732
aa(lp3733
(I2
g3
I2
tp3734
a(I1
S'nn'
p3735
I0
tp3736
a(I2
S'nsubj'
p3737
I1
tp3738
a(I7
S'mark'
p3739
I3
tp3740
a(I5
S'det'
p3741
I4
tp3742
a(I7
S'nsubjpass'
p3743
I5
tp3744
a(I7
S'auxpass'
p3745
I6
tp3746
a(I2
S'ccomp'
p3747
I7
tp3748
a(I7
S'prep_under'
p3749
I9
tp3750
a(I12
S'amod'
p3751
I11
tp3752
a(I9
S'prep_for'
p3753
I12
tp3754
aa(lp3755
(I2
g3
I2
tp3756
a(I1
S'det'
p3757
I0
tp3758
a(I2
S'nsubj'
p3759
I1
tp3760
a(I4
S'det'
p3761
I3
tp3762
a(I4
S'poss'
p3763
I4
tp3764
a(I7
S'poss'
p3765
I4
tp3766
a(I7
S'amod'
p3767
I6
tp3768
a(I8
S'nsubj'
p3769
I7
tp3770
a(I8
S'nn'
p3771
I8
tp3772
a(I2
S'xcomp'
p3773
I8
tp3774
aa(lp3775
(I4
g3
I4
tp3776
a(I1
S'det'
p3777
I0
tp3778
a(I4
S'poss'
p3779
I1
tp3780
a(I4
S'amod'
p3781
I3
tp3782
a(I8
S'nn'
p3783
I5
tp3784
a(I8
S'amod'
p3785
I6
tp3786
a(I8
S'det'
p3787
I7
tp3788
a(I4
S'dep'
p3789
I8
tp3790
a(I4
S'dep'
p3791
I10
tp3792
a(I15
S'det'
p3793
I12
tp3794
a(I15
S'amod'
p3795
I13
tp3796
a(I15
S'amod'
p3797
I14
tp3798
a(I10
S'prep_of'
p3799
I15
tp3800
aa(lp3801
(I2
g3
I2
tp3802
a(I1
S'det'
p3803
I0
tp3804
a(I2
S'nsubj'
p3805
I1
tp3806
a(I5
S'poss'
p3807
I3
tp3808
a(I2
S'dobj'
p3809
I5
tp3810
a(I11
S'mark'
p3811
I6
tp3812
a(I9
S'det'
p3813
I7
tp3814
a(I9
S'num'
p3815
I8
tp3816
a(I11
S'nsubjpass'
p3817
I9
tp3818
a(I11
S'auxpass'
p3819
I10
tp3820
a(I2
S'ccomp'
p3821
I11
tp3822
a(I14
S'amod'
p3823
I13
tp3824
a(I11
S'prep_from'
p3825
I14
tp3826
aa(lp3827
(I10
g3
I10
tp3828
a(I10
S'prep_on'
p3829
I1
tp3830
a(I10
S'tmod'
p3831
I1
tp3832
a(I1
S'num'
p3833
I1
tp3834
a(I3
S'num'
p3835
I2
tp3836
a(I10
S'nsubjpass'
p3837
I3
tp3838
a(I6
S'det'
p3839
I5
tp3840
a(I8
S'poss'
p3841
I6
tp3842
a(I3
S'prep_of'
p3843
I8
tp3844
a(I10
S'auxpass'
p3845
I9
tp3846
a(I13
S'amod'
p3847
I12
tp3848
a(I10
S'prep_under'
p3849
I13
tp3850
aa(lp3851
(I3
g3
I3
tp3852
a(I2
S'det'
p3853
I0
tp3854
a(I2
S'num'
p3855
I1
tp3856
a(I3
S'nsubj'
p3857
I2
tp3858
a(I3
S'dobj'
p3859
I4
tp3860
aa(lp3861
(I5
g3
I5
tp3862
a(I1
S'det'
p3863
I0
tp3864
a(I5
S'nsubj'
p3865
I1
tp3866
a(I5
S'cop'
p3867
I2
tp3868
a(I5
S'det'
p3869
I3
tp3870
a(I5
S'amod'
p3871
I4
tp3872
a(I9
S'amod'
p3873
I7
tp3874
a(I9
S'amod'
p3875
I8
tp3876
a(I5
S'prep_toward'
p3877
I9
tp3878
a(I12
S'amod'
p3879
I11
tp3880
a(I9
S'prep_for'
p3881
I12
tp3882
a(I15
S'det'
p3883
I14
tp3884
a(I17
S'poss'
p3885
I15
tp3886
a(I12
S'prep_between'
p3887
I17
tp3888
a(I21
S'det'
p3889
I19
tp3890
a(I21
S'amod'
p3891
I20
tp3892
a(I17
S'conj_and'
p3893
I21
tp3894
a(I5
S'prepc_for'
p3895
I24
tp3896
a(I26
S'amod'
p3897
I25
tp3898
a(I24
S'dobj'
p3899
I26
tp3900
aa(lp3901
(I3
g3
I3
tp3902
a(I0
S'amod'
p3903
I0
tp3904
a(I3
S'tmod'
p3905
I0
tp3906
a(I2
S'amod'
p3907
I1
tp3908
a(I3
S'nsubj'
p3909
I2
tp3910
a(I5
S'mwe'
p3911
I4
tp3912
a(I7
S'quantmod'
p3913
I5
tp3914
a(I7
S'quantmod'
p3915
I6
tp3916
a(I8
S'num'
p3917
I7
tp3918
a(I3
S'dobj'
p3919
I8
tp3920
a(I8
S'vmod'
p3921
I9
tp3922
a(I12
S'det'
p3923
I11
tp3924
a(I14
S'poss'
p3925
I12
tp3926
a(I9
S'prep_to'
p3927
I14
tp3928
a(I14
S'advmod'
p3929
I15
tp3930
a(I15
S'prep_of'
p3931
I17
tp3932
aa(lp3933
(I3
g3
I3
tp3934
a(I1
S'nn'
p3935
I0
tp3936
a(I3
S'nsubj'
p3937
I1
tp3938
a(I3
S'aux'
p3939
I2
tp3940
a(I5
S'det'
p3941
I4
tp3942
a(I7
S'poss'
p3943
I5
tp3944
a(I3
S'dobj'
p3945
I7
tp3946
a(I7
S'prepc_of'
p3947
I9
tp3948
a(I9
S'dobj'
p3949
I10
tp3950
a(I14
S'det'
p3951
I12
tp3952
a(I14
S'amod'
p3953
I13
tp3954
a(I10
S'prep_as'
p3955
I14
tp3956
a(I16
S'aux'
p3957
I15
tp3958
a(I9
S'vmod'
p3959
I16
tp3960
a(I16
S'dobj'
p3961
I17
tp3962
a(I20
S'amod'
p3963
I19
tp3964
a(I16
S'prep_against'
p3965
I20
tp3966
aa(lp3967
(I8
g3
I8
tp3968
a(I1
S'det'
p3969
I0
tp3970
a(I8
S'nsubj'
p3971
I1
tp3972
a(I1
S'prep_of'
p3973
I3
tp3974
a(I3
S'prep_in'
p3975
I5
tp3976
a(I5
S'conj_and'
p3977
I7
tp3978
a(I10
S'det'
p3979
I9
tp3980
a(I8
S'dobj'
p3981
I10
tp3982
aa(lp3983
(I2
g3
I2
tp3984
a(I1
S'num'
p3985
I0
tp3986
a(I2
S'nsubj'
p3987
I1
tp3988
a(I2
S'dobj'
p3989
I3
tp3990
a(I2
S'prep_on'
p3991
I5
tp3992
a(I8
S'det'
p3993
I7
tp3994
a(I5
S'prep_at'
p3995
I8
tp3996
aa(lp3997
(I9
g3
I9
tp3998
a(I1
S'det'
p3999
I0
tp4000
a(I9
S'nsubj'
p4001
I1
tp4002
a(I1
S'prep_in'
p4003
I3
tp4004
a(I6
S'det'
p4005
I5
tp4006
a(I1
S'conj_and'
p4007
I6
tp4008
a(I6
S'prep_in'
p4009
I8
tp4010
a(I9
S'prep_from'
p4011
I11
tp4012
a(I11
S'vmod'
p4013
I12
tp4014
a(I12
S'agent'
p4015
I14
tp4016
a(I14
S'dobj'
p4017
I15
tp4018
a(I14
S'prep_on'
p4019
I17
tp4020
aa(lp4021
(I3
g3
I3
tp4022
a(I2
S'amod'
p4023
I0
tp4024
a(I2
S'nn'
p4025
I1
tp4026
a(I3
S'nsubj'
p4027
I2
tp4028
a(I6
S'det'
p4029
I4
tp4030
a(I6
S'nn'
p4031
I5
tp4032
a(I3
S'dobj'
p4033
I6
tp4034
a(I9
S'det'
p4035
I8
tp4036
a(I3
S'prep_at'
p4037
I9
tp4038
a(I12
S'det'
p4039
I11
tp4040
a(I12
S'nn'
p4041
I12
tp4042
a(I9
S'prep_of'
p4043
I12
tp4044
a(I12
S'prep_of'
p4045
I12
tp4046
a(I12
S'prep_of'
p4047
I12
tp4048
a(I12
S'num'
p4049
I13
tp4050
a(I3
S'tmod'
p4051
I14
tp4052
a(I14
S'num'
p4053
I15
tp4054
aa(lp4055
(I9
g3
I9
tp4056
a(I1
S'mwe'
p4057
I0
tp4058
a(I2
S'quantmod'
p4059
I1
tp4060
a(I9
S'nsubjpass'
p4061
I2
tp4062
a(I6
S'det'
p4063
I4
tp4064
a(I6
S'nn'
p4065
I5
tp4066
a(I2
S'prep_of'
p4067
I6
tp4068
a(I9
S'aux'
p4069
I7
tp4070
a(I9
S'auxpass'
p4071
I8
tp4072
a(I9
S'prep_in'
p4073
I11
tp4074
a(I11
S'prep_for'
p4075
I13
tp4076
aa(lp4077
(I5
g3
I5
tp4078
a(I1
S'quantmod'
p4079
I0
tp4080
a(I2
S'num'
p4081
I1
tp4082
a(I5
S'nsubjpass'
p4083
I2
tp4084
a(I5
S'aux'
p4085
I3
tp4086
a(I5
S'auxpass'
p4087
I4
tp4088
a(I9
S'det'
p4089
I7
tp4090
a(I9
S'nn'
p4091
I8
tp4092
a(I5
S'prep_in'
p4093
I9
tp4094
a(I12
S'det'
p4095
I11
tp4096
a(I14
S'poss'
p4097
I12
tp4098
a(I9
S'prep_on'
p4099
I14
tp4100
aa(lp4101
a(lp4102
(I6
g3
I6
tp4103
a(I1
S'det'
p4104
I0
tp4105
a(I3
S'poss'
p4106
I1
tp4107
a(I6
S'nsubjpass'
p4108
I3
tp4109
a(I6
S'aux'
p4110
I4
tp4111
a(I6
S'auxpass'
p4112
I5
tp4113
a(I9
S'det'
p4114
I8
tp4115
a(I6
S'agent'
p4116
I9
tp4117
a(I12
S'det'
p4118
I11
tp4119
a(I9
S'conj_and'
p4120
I12
tp4121
a(I9
S'conj_and'
p4122
I14
tp4123
a(I18
S'det'
p4124
I16
tp4125
a(I18
S'amod'
p4126
I17
tp4127
a(I6
S'prep_as'
p4128
I18
tp4129
aa(lp4130
(I12
g3
I12
tp4131
a(I1
S'det'
p4132
I0
tp4133
a(I5
S'poss'
p4134
I1
tp4135
a(I5
S'nn'
p4136
I3
tp4137
a(I5
S'amod'
p4138
I4
tp4139
a(I12
S'nsubjpass'
p4140
I5
tp4141
a(I5
S'vmod'
p4142
I6
tp4143
a(I6
S'dobj'
p4144
I7
tp4145
a(I7
S'prep_in'
p4146
I9
tp4147
a(I12
S'aux'
p4148
I10
tp4149
a(I12
S'auxpass'
p4150
I11
tp4151
a(I15
S'nn'
p4152
I14
tp4153
a(I12
S'agent'
p4154
I15
tp4155
aa(lp4156
(I5
g3
I5
tp4157
a(I1
S'det'
p4158
I0
tp4159
a(I3
S'poss'
p4160
I1
tp4161
a(I5
S'nsubj'
p4162
I3
tp4163
a(I5
S'aux'
p4164
I4
tp4165
a(I7
S'amod'
p4166
I6
tp4167
a(I5
S'dobj'
p4168
I7
tp4169
a(I7
S'prepc_of'
p4170
I9
tp4171
a(I9
S'prt'
p4172
I10
tp4173
a(I12
S'poss'
p4174
I11
tp4175
a(I9
S'dobj'
p4176
I12
tp4177
a(I9
S'prep_as'
p4178
I14
tp4179
a(I17
S'det'
p4180
I16
tp4181
a(I14
S'prep_of'
p4182
I17
tp4183
a(I17
S'prep_with'
p4184
I19
tp4185
aa(lp4186
(I1
g3
I1
tp4187
a(I1
S'nsubj'
p4188
I0
tp4189
a(I1
S'xcomp'
p4190
I2
tp4191
a(I5
S'predet'
p4192
I3
tp4193
a(I5
S'det'
p4194
I4
tp4195
a(I2
S'dobj'
p4196
I5
tp4197
a(I2
S'prep_with'
p4198
I7
tp4199
aa(lp4200
(I9
g3
I9
tp4201
a(I1
S'det'
p4202
I0
tp4203
a(I9
S'nsubj'
p4204
I1
tp4205
a(I9
S'cop'
p4206
I2
tp4207
a(I4
S'det'
p4208
I3
tp4209
a(I6
S'poss'
p4210
I4
tp4211
a(I9
S'poss'
p4212
I6
tp4213
a(I9
S'amod'
p4214
I8
tp4215
a(I9
S'prep_in'
p4216
I11
tp4217
a(I15
S'dep'
p4218
I13
tp4219
a(I9
S'dep'
p4220
I15
tp4221
aa(lp4222
(I3
g3
I3
tp4223
a(I1
S'nn'
p4224
I0
tp4225
a(I3
S'nsubjpass'
p4226
I1
tp4227
a(I3
S'auxpass'
p4228
I2
tp4229
a(I8
S'poss'
p4230
I5
tp4231
a(I8
S'nn'
p4232
I7
tp4233
a(I3
S'agent'
p4234
I8
tp4235
aa(lp4236
(I8
g3
I8
tp4237
a(I8
S'nsubj'
p4238
I0
tp4239
a(I0
S'prep_in'
p4240
I2
tp4241
a(I6
S'dep'
p4242
I4
tp4243
a(I0
S'dep'
p4244
I6
tp4245
a(I8
S'aux'
p4246
I7
tp4247
a(I10
S'num'
p4248
I9
tp4249
a(I8
S'dobj'
p4250
I10
tp4251
a(I8
S'tmod'
p4252
I11
tp4253
a(I11
S'num'
p4254
I12
tp4255
a(I15
S'num'
p4256
I12
tp4257
a(I15
S'nn'
p4258
I13
tp4259
a(I15
S'nn'
p4260
I14
tp4261
a(I11
S'dep'
p4262
I15
tp4263
aa(lp4264
(I0
g3
I0
tp4265
aa(lp4266
(I2
g3
I2
tp4267
a(I2
S'nn'
p4268
I0
tp4269
a(I2
S'poss'
p4270
I2
tp4271
a(I2
S'dep'
p4272
I2
tp4273
a(I6
S'num'
p4274
I4
tp4275
a(I6
S'nn'
p4276
I5
tp4277
a(I2
S'prep_of'
p4278
I6
tp4279
a(I10
S'nn'
p4280
I8
tp4281
a(I2
S'dep'
p4282
I10
tp4283
a(I14
S'num'
p4284
I12
tp4285
a(I14
S'nn'
p4286
I13
tp4287
a(I10
S'prep_of'
p4288
I14
tp4289
a(I16
S'nn'
p4290
I16
tp4291
a(I2
S'dep'
p4292
I16
tp4293
a(I18
S'num'
p4294
I17
tp4295
a(I16
S'dep'
p4296
I18
tp4297
a(I18
S'num'
p4298
I19
tp4299
aa(lp4300
(I0
g3
I0
tp4301
a(I0
S'dep'
p4302
I2
tp4303
a(I2
S'dep'
p4304
I4
tp4305
a(I4
S'dep'
p4306
I6
tp4307
aa(lp4308
(I10
g3
I10
tp4309
a(I8
S'det'
p4310
I0
tp4311
a(I2
S'number'
p4312
I1
tp4313
a(I4
S'num'
p4314
I2
tp4315
a(I4
S'nn'
p4316
I3
tp4317
a(I4
S'nn'
p4318
I3
tp4319
a(I8
S'nn'
p4320
I4
tp4321
a(I8
S'amod'
p4322
I5
tp4323
a(I8
S'amod'
p4324
I5
tp4325
a(I8
S'amod'
p4326
I6
tp4327
a(I8
S'nn'
p4328
I7
tp4329
a(I10
S'nsubj'
p4330
I8
tp4331
a(I10
S'cop'
p4332
I9
tp4333
a(I10
S'prep_upon'
p4334
I12
tp4335
a(I12
S'prep_of'
p4336
I14
tp4337
a(I16
S'nn'
p4338
I16
tp4339
a(I14
S'prep_between'
p4340
I16
tp4341
a(I18
S'nn'
p4342
I18
tp4343
a(I12
S'conj_and'
p4344
I18
tp4345
a(I20
S'nn'
p4346
I20
tp4347
a(I22
S'poss'
p4348
I20
tp4349
a(I18
S'prep_regarding'
p4350
I22
tp4351
a(I24
S'aux'
p4352
I23
tp4353
a(I22
S'vmod'
p4354
I24
tp4355
a(I26
S'amod'
p4356
I25
tp4357
a(I24
S'dobj'
p4358
I26
tp4359
aa(lp4360
(I1
g3
I1
tp4361
a(I0
S'nn'
p4362
I0
tp4363
a(I1
S'nsubj'
p4364
I0
tp4365
a(I1
S'prep_on'
p4366
I3
tp4367
a(I15
S'mark'
p4368
I4
tp4369
a(I13
S'det'
p4370
I5
tp4371
a(I7
S'number'
p4372
I6
tp4373
a(I9
S'num'
p4374
I7
tp4375
a(I9
S'nn'
p4376
I8
tp4377
a(I9
S'nn'
p4378
I8
tp4379
a(I13
S'nn'
p4380
I9
tp4381
a(I13
S'amod'
p4382
I10
tp4383
a(I13
S'amod'
p4384
I10
tp4385
a(I13
S'amod'
p4386
I11
tp4387
a(I13
S'nn'
p4388
I12
tp4389
a(I15
S'nsubj'
p4390
I13
tp4391
a(I15
S'cop'
p4392
I14
tp4393
a(I1
S'ccomp'
p4394
I15
tp4395
a(I15
S'prep_upon'
p4396
I17
tp4397
a(I17
S'prep_of'
p4398
I19
tp4399
a(I21
S'nn'
p4400
I21
tp4401
a(I19
S'prep_between'
p4402
I21
tp4403
a(I23
S'nn'
p4404
I23
tp4405
a(I17
S'conj_and'
p4406
I23
tp4407
a(I25
S'nn'
p4408
I25
tp4409
a(I27
S'poss'
p4410
I25
tp4411
a(I23
S'prep_regarding'
p4412
I27
tp4413
a(I29
S'aux'
p4414
I28
tp4415
a(I27
S'vmod'
p4416
I29
tp4417
a(I31
S'amod'
p4418
I30
tp4419
a(I29
S'dobj'
p4420
I31
tp4421
aa(lp4422
(I1
g3
I1
tp4423
a(I1
S'nsubj'
p4424
I0
tp4425
a(I4
S'mark'
p4426
I2
tp4427
a(I3
S'nn'
p4428
I3
tp4429
a(I4
S'nsubj'
p4430
I3
tp4431
a(I1
S'ccomp'
p4432
I4
tp4433
a(I6
S'det'
p4434
I5
tp4435
a(I4
S'dobj'
p4436
I6
tp4437
a(I4
S'prep_during'
p4438
I8
tp4439
a(I10
S'amod'
p4440
I10
tp4441
a(I13
S'amod'
p4442
I10
tp4443
a(I13
S'nn'
p4444
I11
tp4445
a(I13
S'nn'
p4446
I12
tp4447
a(I13
S'nn'
p4448
I13
tp4449
a(I4
S'prep_with'
p4450
I13
tp4451
a(I13
S'dep'
p4452
I15
tp4453
aa(lp4454
(I3
g3
I3
tp4455
a(I0
S'nn'
p4456
I0
tp4457
a(I3
S'nsubj'
p4458
I0
tp4459
a(I3
S'cop'
p4460
I1
tp4461
a(I3
S'amod'
p4462
I2
tp4463
a(I6
S'det'
p4464
I5
tp4465
a(I6
S'amod'
p4466
I6
tp4467
a(I6
S'nn'
p4468
I6
tp4469
a(I6
S'nn'
p4470
I6
tp4471
a(I6
S'nn'
p4472
I6
tp4473
a(I3
S'prep_of'
p4474
I6
tp4475
aa(lp4476
(I1
g3
I1
tp4477
a(I1
S'nn'
p4478
I0
tp4479
a(I1
S'dep'
p4480
I3
tp4481
a(I3
S'vmod'
p4482
I4
tp4483
a(I4
S'prep_to'
p4484
I6
tp4485
a(I9
S'dobj'
p4486
I7
tp4487
a(I8
S'nn'
p4488
I8
tp4489
a(I9
S'nsubj'
p4490
I8
tp4491
a(I6
S'rcmod'
p4492
I9
tp4493
a(I17
S'mark'
p4494
I10
tp4495
a(I15
S'det'
p4496
I11
tp4497
a(I12
S'amod'
p4498
I12
tp4499
a(I15
S'amod'
p4500
I12
tp4501
a(I15
S'amod'
p4502
I13
tp4503
a(I15
S'nn'
p4504
I14
tp4505
a(I17
S'nsubjpass'
p4506
I15
tp4507
a(I17
S'auxpass'
p4508
I16
tp4509
a(I9
S'ccomp'
p4510
I17
tp4511
a(I19
S'nn'
p4512
I19
tp4513
a(I21
S'poss'
p4514
I19
tp4515
a(I17
S'prep_to'
p4516
I21
tp4517
a(I24
S'amod'
p4518
I23
tp4519
a(I17
S'prep_with'
p4520
I24
tp4521
aa(lp4522
(I1
g3
I1
tp4523
a(I1
S'nn'
p4524
I0
tp4525
a(I6
S'nsubj'
p4526
I3
tp4527
a(I6
S'cop'
p4528
I4
tp4529
a(I6
S'det'
p4530
I5
tp4531
a(I1
S'dep'
p4532
I6
tp4533
a(I9
S'det'
p4534
I8
tp4535
a(I9
S'amod'
p4536
I9
tp4537
a(I9
S'amod'
p4538
I9
tp4539
a(I9
S'nn'
p4540
I9
tp4541
a(I9
S'poss'
p4542
I9
tp4543
a(I9
S'amod'
p4544
I9
tp4545
a(I9
S'nn'
p4546
I9
tp4547
a(I9
S'nn'
p4548
I9
tp4549
a(I6
S'prep_of'
p4550
I9
tp4551
aa(lp4552
(I1
g3
I1
tp4553
a(I1
S'nn'
p4554
I0
tp4555
a(I4
S'nsubj'
p4556
I3
tp4557
a(I1
S'dep'
p4558
I4
tp4559
a(I7
S'mark'
p4560
I5
tp4561
a(I6
S'nn'
p4562
I6
tp4563
a(I7
S'nsubj'
p4564
I6
tp4565
a(I4
S'ccomp'
p4566
I7
tp4567
a(I26
S'mark'
p4568
I8
tp4569
a(I9
S'nn'
p4570
I9
tp4571
a(I11
S'poss'
p4572
I9
tp4573
a(I26
S'nsubj'
p4574
I11
tp4575
a(I15
S'det'
p4576
I13
tp4577
a(I15
S'amod'
p4578
I14
tp4579
a(I11
S'prep_in'
p4580
I15
tp4581
a(I15
S'vmod'
p4582
I16
tp4583
a(I19
S'det'
p4584
I18
tp4585
a(I19
S'nn'
p4586
I19
tp4587
a(I16
S'agent'
p4588
I19
tp4589
a(I21
S'aux'
p4590
I20
tp4591
a(I16
S'xcomp'
p4592
I21
tp4593
a(I24
S'det'
p4594
I22
tp4595
a(I24
S'amod'
p4596
I23
tp4597
a(I21
S'dobj'
p4598
I24
tp4599
a(I26
S'aux'
p4600
I25
tp4601
a(I7
S'ccomp'
p4602
I26
tp4603
a(I27
S'amod'
p4604
I27
tp4605
a(I27
S'nn'
p4606
I27
tp4607
a(I27
S'nn'
p4608
I27
tp4609
a(I27
S'nn'
p4610
I27
tp4611
a(I28
S'nsubj'
p4612
I27
tp4613
a(I26
S'ccomp'
p4614
I28
tp4615
a(I31
S'det'
p4616
I29
tp4617
a(I31
S'nn'
p4618
I30
tp4619
a(I28
S'dobj'
p4620
I31
tp4621
a(I37
S'det'
p4622
I33
tp4623
a(I34
S'amod'
p4624
I34
tp4625
a(I37
S'amod'
p4626
I34
tp4627
a(I37
S'amod'
p4628
I35
tp4629
a(I37
S'nn'
p4630
I36
tp4631
a(I28
S'prep_over'
p4632
I37
tp4633
aa(lp4634
(I1
g3
I1
tp4635
a(I1
S'nn'
p4636
I0
tp4637
a(I4
S'nsubj'
p4638
I3
tp4639
a(I1
S'dep'
p4640
I4
tp4641
a(I7
S'mark'
p4642
I5
tp4643
a(I7
S'nsubj'
p4644
I6
tp4645
a(I4
S'ccomp'
p4646
I7
tp4647
a(I10
S'aux'
p4648
I8
tp4649
a(I10
S'aux'
p4650
I9
tp4651
a(I7
S'xcomp'
p4652
I10
tp4653
a(I13
S'det'
p4654
I11
tp4655
a(I13
S'amod'
p4656
I12
tp4657
a(I10
S'dobj'
p4658
I13
tp4659
a(I10
S'prep'
p4660
I14
tp4661
a(I10
S'advmod'
p4662
I15
tp4663
a(I15
S'pobj'
p4664
I16
tp4665
a(I20
S'mark'
p4666
I18
tp4667
a(I20
S'expl'
p4668
I19
tp4669
a(I7
S'conj_and'
p4670
I20
tp4671
a(I25
S'aux'
p4672
I21
tp4673
a(I25
S'aux'
p4674
I22
tp4675
a(I25
S'neg'
p4676
I23
tp4677
a(I25
S'amod'
p4678
I24
tp4679
a(I20
S'xcomp'
p4680
I25
tp4681
a(I28
S'amod'
p4682
I27
tp4683
a(I25
S'prep_despite'
p4684
I28
tp4685
a(I31
S'det'
p4686
I30
tp4687
a(I31
S'nn'
p4688
I31
tp4689
a(I25
S'prep_in'
p4690
I31
tp4691
aa(lp4692
(I1
g3
I1
tp4693
a(I1
S'nn'
p4694
I0
tp4695
a(I4
S'nsubj'
p4696
I3
tp4697
a(I1
S'dep'
p4698
I4
tp4699
a(I6
S'aux'
p4700
I5
tp4701
a(I4
S'xcomp'
p4702
I6
tp4703
a(I8
S'det'
p4704
I7
tp4705
a(I6
S'dobj'
p4706
I8
tp4707
a(I14
S'det'
p4708
I10
tp4709
a(I11
S'amod'
p4710
I11
tp4711
a(I14
S'amod'
p4712
I11
tp4713
a(I14
S'amod'
p4714
I12
tp4715
a(I14
S'nn'
p4716
I13
tp4717
a(I6
S'prep_about'
p4718
I14
tp4719
aa(lp4720
(I2
g3
I2
tp4721
a(I1
S'det'
p4722
I0
tp4723
a(I1
S'nn'
p4724
I1
tp4725
a(I1
S'nn'
p4726
I1
tp4727
a(I2
S'nsubj'
p4728
I1
tp4729
a(I6
S'mark'
p4730
I3
tp4731
a(I4
S'nn'
p4732
I4
tp4733
a(I6
S'nsubj'
p4734
I4
tp4735
a(I6
S'aux'
p4736
I5
tp4737
a(I2
S'ccomp'
p4738
I6
tp4739
a(I16
S'mark'
p4740
I7
tp4741
a(I12
S'det'
p4742
I8
tp4743
a(I9
S'amod'
p4744
I9
tp4745
a(I12
S'amod'
p4746
I9
tp4747
a(I12
S'amod'
p4748
I10
tp4749
a(I12
S'nn'
p4750
I11
tp4751
a(I16
S'nsubjpass'
p4752
I12
tp4753
a(I16
S'aux'
p4754
I13
tp4755
a(I16
S'neg'
p4756
I14
tp4757
a(I16
S'auxpass'
p4758
I15
tp4759
a(I6
S'ccomp'
p4760
I16
tp4761
a(I21
S'mark'
p4762
I17
tp4763
a(I20
S'det'
p4764
I18
tp4765
a(I19
S'amod'
p4766
I19
tp4767
a(I20
S'amod'
p4768
I19
tp4769
a(I21
S'nsubj'
p4770
I20
tp4771
a(I16
S'advcl'
p4772
I21
tp4773
a(I23
S'aux'
p4774
I22
tp4775
a(I21
S'xcomp'
p4776
I23
tp4777
a(I26
S'det'
p4778
I24
tp4779
a(I26
S'amod'
p4780
I25
tp4781
a(I23
S'dobj'
p4782
I26
tp4783
aa(lp4784
(I5
g3
I5
tp4785
a(I2
S'det'
p4786
I0
tp4787
a(I2
S'nn'
p4788
I1
tp4789
a(I2
S'nn'
p4790
I1
tp4791
a(I5
S'nsubj'
p4792
I2
tp4793
a(I5
S'aux'
p4794
I3
tp4795
a(I5
S'advmod'
p4796
I4
tp4797
a(I10
S'det'
p4798
I6
tp4799
a(I7
S'amod'
p4800
I7
tp4801
a(I10
S'amod'
p4802
I7
tp4803
a(I10
S'amod'
p4804
I8
tp4805
a(I10
S'nn'
p4806
I9
tp4807
a(I5
S'dobj'
p4808
I10
tp4809
a(I12
S'auxpass'
p4810
I11
tp4811
a(I5
S'dep'
p4812
I12
tp4813
a(I12
S'prep_as'
p4814
I14
tp4815
a(I18
S'amod'
p4816
I16
tp4817
a(I18
S'amod'
p4818
I17
tp4819
a(I14
S'prep_of'
p4820
I18
tp4821
a(I22
S'det'
p4822
I20
tp4823
a(I21
S'amod'
p4824
I21
tp4825
a(I22
S'amod'
p4826
I21
tp4827
a(I18
S'prep_on'
p4828
I22
tp4829
aa(lp4830
(I4
g3
I4
tp4831
a(I0
S'nn'
p4832
I0
tp4833
a(I4
S'nsubj'
p4834
I0
tp4835
a(I4
S'aux'
p4836
I1
tp4837
a(I3
S'advmod'
p4838
I2
tp4839
a(I4
S'advmod'
p4840
I3
tp4841
a(I7
S'det'
p4842
I5
tp4843
a(I7
S'amod'
p4844
I6
tp4845
a(I4
S'dobj'
p4846
I7
tp4847
a(I10
S'det'
p4848
I9
tp4849
a(I4
S'prep_on'
p4850
I10
tp4851
a(I16
S'det'
p4852
I12
tp4853
a(I13
S'amod'
p4854
I13
tp4855
a(I16
S'amod'
p4856
I13
tp4857
a(I16
S'amod'
p4858
I14
tp4859
a(I16
S'nn'
p4860
I15
tp4861
a(I10
S'prep_of'
p4862
I16
tp4863
aa(lp4864
(I7
g3
I7
tp4865
a(I1
S'det'
p4866
I0
tp4867
a(I1
S'amod'
p4868
I1
tp4869
a(I1
S'nn'
p4870
I1
tp4871
a(I1
S'nn'
p4872
I1
tp4873
a(I1
S'nn'
p4874
I1
tp4875
a(I3
S'nsubjpass'
p4876
I1
tp4877
a(I3
S'auxpass'
p4878
I2
tp4879
a(I7
S'dep'
p4880
I3
tp4881
a(I6
S'det'
p4882
I5
tp4883
a(I3
S'prep_under'
p4884
I6
tp4885
a(I7
S'nsubj'
p4886
I8
tp4887
a(I10
S'nn'
p4888
I10
tp4889
a(I8
S'prep_between'
p4890
I10
tp4891
a(I13
S'det'
p4892
I12
tp4893
a(I13
S'nn'
p4894
I13
tp4895
a(I10
S'conj_and'
p4896
I13
tp4897
aa(lp4898
(I2
g3
I2
tp4899
a(I1
S'det'
p4900
I0
tp4901
a(I1
S'amod'
p4902
I1
tp4903
a(I1
S'nn'
p4904
I1
tp4905
a(I1
S'nn'
p4906
I1
tp4907
a(I1
S'nn'
p4908
I1
tp4909
a(I2
S'nsubj'
p4910
I1
tp4911
a(I4
S'aux'
p4912
I3
tp4913
a(I2
S'xcomp'
p4914
I4
tp4915
a(I5
S'nn'
p4916
I5
tp4917
a(I4
S'dobj'
p4918
I5
tp4919
a(I8
S'num'
p4920
I7
tp4921
a(I5
S'prep_with'
p4922
I8
tp4923
a(I12
S'nn'
p4924
I10
tp4925
a(I12
S'amod'
p4926
I11
tp4927
a(I13
S'nsubj'
p4928
I12
tp4929
a(I2
S'parataxis'
p4930
I13
tp4931
a(I17
S'amod'
p4932
I14
tp4933
a(I14
S'prep_for'
p4934
I16
tp4935
a(I13
S'dobj'
p4936
I17
tp4937
a(I21
S'num'
p4938
I19
tp4939
a(I21
S'amod'
p4940
I20
tp4941
a(I17
S'conj_and'
p4942
I21
tp4943
a(I25
S'amod'
p4944
I23
tp4945
a(I25
S'nn'
p4946
I24
tp4947
a(I21
S'prep_of'
p4948
I25
tp4949
a(I25
S'prep_per'
p4950
I27
tp4951
aa(lp4952
(I0
g3
I0
tp4953
a(I4
S'det'
p4954
I2
tp4955
a(I4
S'num'
p4956
I3
tp4957
a(I0
S'prep_on'
p4958
I4
tp4959
a(I0
S'dep'
p4960
I6
tp4961
a(I8
S'amod'
p4962
I7
tp4963
a(I9
S'nsubj'
p4964
I8
tp4965
a(I6
S'rcmod'
p4966
I9
tp4967
a(I9
S'prep_in'
p4968
I11
tp4969
a(I9
S'conj_and'
p4970
I13
tp4971
a(I13
S'advmod'
p4972
I14
tp4973
a(I13
S'prep_behind'
p4974
I16
tp4975
aa(lp4976
(I0
g3
I0
tp4977
a(I0
S'prep_on'
p4978
I2
tp4979
a(I6
S'det'
p4980
I4
tp4981
a(I6
S'num'
p4982
I5
tp4983
a(I0
S'prep_of'
p4984
I6
tp4985
a(I0
S'dep'
p4986
I8
tp4987
a(I10
S'amod'
p4988
I9
tp4989
a(I13
S'nsubjpass'
p4990
I10
tp4991
a(I13
S'auxpass'
p4992
I11
tp4993
a(I13
S'advmod'
p4994
I12
tp4995
a(I8
S'rcmod'
p4996
I13
tp4997
a(I16
S'aux'
p4998
I14
tp4999
a(I16
S'auxpass'
p5000
I15
tp5001
a(I13
S'xcomp'
p5002
I16
tp5003
a(I16
S'prep_in'
p5004
I18
tp5005
aa(lp5006
(I3
g3
I3
tp5007
a(I1
S'det'
p5008
I0
tp5009
a(I1
S'amod'
p5010
I1
tp5011
a(I1
S'nn'
p5012
I1
tp5013
a(I1
S'nn'
p5014
I1
tp5015
a(I1
S'nn'
p5016
I1
tp5017
a(I3
S'nsubj'
p5018
I1
tp5019
a(I3
S'aux'
p5020
I2
tp5021
a(I5
S'nn'
p5022
I4
tp5023
a(I3
S'dobj'
p5024
I5
tp5025
a(I9
S'det'
p5026
I7
tp5027
a(I9
S'num'
p5028
I8
tp5029
a(I5
S'prep_on'
p5030
I9
tp5031
a(I5
S'dep'
p5032
I11
tp5033
a(I13
S'amod'
p5034
I12
tp5035
a(I11
S'dep'
p5036
I13
tp5037
a(I16
S'aux'
p5038
I15
tp5039
a(I3
S'conj_and'
p5040
I16
tp5041
a(I16
S'dobj'
p5042
I17
tp5043
a(I20
S'nn'
p5044
I19
tp5045
a(I17
S'prep_of'
p5046
I20
tp5047
a(I22
S'nn'
p5048
I22
tp5049
a(I16
S'prep_to'
p5050
I22
tp5051
a(I22
S'prep_from'
p5052
I24
tp5053
a(I27
S'det'
p5054
I26
tp5055
a(I16
S'prep_at'
p5056
I27
tp5057
a(I31
S'det'
p5058
I29
tp5059
a(I31
S'amod'
p5060
I30
tp5061
a(I27
S'prep_of'
p5062
I31
tp5063
a(I35
S'nsubj'
p5064
I34
tp5065
a(I16
S'prepc_off'
p5066
I35
tp5067
a(I35
S'prep_in'
p5068
I37
tp5069
a(I42
S'advmod'
p5070
I38
tp5071
a(I41
S'det'
p5072
I39
tp5073
a(I40
S'amod'
p5074
I40
tp5075
a(I41
S'amod'
p5076
I40
tp5077
a(I42
S'nsubj'
p5078
I41
tp5079
a(I35
S'advcl'
p5080
I42
tp5081
a(I42
S'prepc_to'
p5082
I44
tp5083
a(I48
S'det'
p5084
I45
tp5085
a(I48
S'amod'
p5086
I46
tp5087
a(I48
S'nn'
p5088
I47
tp5089
a(I44
S'dobj'
p5090
I48
tp5091
a(I48
S'prepc_based_on'
p5092
I50
tp5093
a(I52
S'amod'
p5094
I51
tp5095
a(I48
S'pobj'
p5096
I52
tp5097
aa(lp5098
(I2
g3
I2
tp5099
a(I1
S'det'
p5100
I0
tp5101
a(I2
S'nsubj'
p5102
I1
tp5103
a(I8
S'nsubj'
p5104
I2
tp5105
a(I4
S'nn'
p5106
I4
tp5107
a(I2
S'prep_between'
p5108
I4
tp5109
a(I7
S'det'
p5110
I6
tp5111
a(I7
S'nn'
p5112
I7
tp5113
a(I4
S'conj_and'
p5114
I7
tp5115
a(I2
S'ccomp'
p5116
I8
tp5117
a(I9
S'nn'
p5118
I9
tp5119
a(I8
S'dobj'
p5120
I9
tp5121
a(I11
S'aux'
p5122
I10
tp5123
a(I8
S'xcomp'
p5124
I11
tp5125
a(I13
S'det'
p5126
I12
tp5127
a(I11
S'dobj'
p5128
I13
tp5129
a(I13
S'prep_of'
p5130
I15
tp5131
a(I18
S'amod'
p5132
I17
tp5133
a(I13
S'dep'
p5134
I18
tp5135
a(I18
S'vmod'
p5136
I19
tp5137
a(I21
S'aux'
p5138
I20
tp5139
a(I19
S'xcomp'
p5140
I21
tp5141
a(I21
S'dobj'
p5142
I22
tp5143
a(I25
S'nn'
p5144
I24
tp5145
a(I18
S'dep'
p5146
I25
tp5147
a(I27
S'nn'
p5148
I27
tp5149
a(I31
S'poss'
p5150
I27
tp5151
a(I31
S'nn'
p5152
I29
tp5153
a(I31
S'amod'
p5154
I30
tp5155
a(I25
S'prep_at'
p5156
I31
tp5157
aa(lp5158
(I3
g3
I3
tp5159
a(I0
S'nn'
p5160
I0
tp5161
a(I3
S'nsubj'
p5162
I0
tp5163
a(I3
S'aux'
p5164
I1
tp5165
a(I3
S'neg'
p5166
I2
tp5167
a(I6
S'det'
p5168
I5
tp5169
a(I3
S'prep_to'
p5170
I6
tp5171
a(I6
S'vmod'
p5172
I7
tp5173
a(I7
S'dobj'
p5174
I8
tp5175
aa(lp5176
(I1
g3
I1
tp5177
a(I0
S'nn'
p5178
I0
tp5179
a(I1
S'nsubj'
p5180
I0
tp5181
a(I4
S'amod'
p5182
I2
tp5183
a(I4
S'nn'
p5184
I3
tp5185
a(I1
S'dobj'
p5186
I4
tp5187
a(I7
S'det'
p5188
I6
tp5189
a(I1
S'prep_from'
p5190
I7
tp5191
a(I10
S'amod'
p5192
I9
tp5193
a(I7
S'dep'
p5194
I10
tp5195
a(I1
S'conj_and'
p5196
I12
tp5197
a(I14
S'nsubj'
p5198
I13
tp5199
a(I14
S'amod'
p5200
I13
tp5201
a(I14
S'nn'
p5202
I13
tp5203
a(I14
S'nn'
p5204
I13
tp5205
a(I12
S'xcomp'
p5206
I14
tp5207
a(I1
S'conj_and'
p5208
I16
tp5209
a(I23
S'det'
p5210
I18
tp5211
a(I23
S'amod'
p5212
I19
tp5213
a(I23
S'amod'
p5214
I20
tp5215
a(I23
S'nn'
p5216
I22
tp5217
a(I16
S'prep_from'
p5218
I23
tp5219
aa(lp5220
(I3
g3
I3
tp5221
a(I3
S'prep_on'
p5222
I1
tp5223
a(I2
S'nn'
p5224
I2
tp5225
a(I3
S'nsubj'
p5226
I2
tp5227
a(I3
S'advmod'
p5228
I4
tp5229
a(I8
S'det'
p5230
I6
tp5231
a(I8
S'amod'
p5232
I7
tp5233
a(I3
S'prep_for'
p5234
I8
tp5235
a(I12
S'dobj'
p5236
I9
tp5237
a(I10
S'nn'
p5238
I10
tp5239
a(I12
S'nsubj'
p5240
I10
tp5241
a(I12
S'aux'
p5242
I11
tp5243
a(I8
S'rcmod'
p5244
I12
tp5245
a(I15
S'amod'
p5246
I13
tp5247
a(I15
S'nn'
p5248
I14
tp5249
a(I12
S'dobj'
p5250
I15
tp5251
aa(lp5252
(I4
g3
I4
tp5253
a(I1
S'nn'
p5254
I0
tp5255
a(I1
S'nn'
p5256
I0
tp5257
a(I4
S'nsubj'
p5258
I1
tp5259
a(I4
S'aux'
p5260
I2
tp5261
a(I4
S'neg'
p5262
I3
tp5263
a(I6
S'advmod'
p5264
I5
tp5265
a(I13
S'dep'
p5266
I6
tp5267
a(I7
S'nn'
p5268
I7
tp5269
a(I11
S'poss'
p5270
I7
tp5271
a(I11
S'amod'
p5272
I9
tp5273
a(I11
S'nn'
p5274
I10
tp5275
a(I13
S'nsubj'
p5276
I11
tp5277
a(I13
S'aux'
p5278
I12
tp5279
a(I4
S'ccomp'
p5280
I13
tp5281
aa(lp5282
(I2
g3
I2
tp5283
a(I1
S'nn'
p5284
I0
tp5285
a(I1
S'nn'
p5286
I0
tp5287
a(I2
S'nsubj'
p5288
I1
tp5289
a(I5
S'det'
p5290
I3
tp5291
a(I4
S'amod'
p5292
I4
tp5293
a(I5
S'amod'
p5294
I4
tp5295
a(I8
S'nsubj'
p5296
I5
tp5297
a(I8
S'aux'
p5298
I6
tp5299
a(I8
S'advmod'
p5300
I7
tp5301
a(I2
S'ccomp'
p5302
I8
tp5303
a(I10
S'advmod'
p5304
I9
tp5305
a(I8
S'dobj'
p5306
I10
tp5307
a(I16
S'num'
p5308
I12
tp5309
a(I12
S'conj_or'
p5310
I14
tp5311
a(I16
S'amod'
p5312
I15
tp5313
a(I10
S'prep_for'
p5314
I16
tp5315
aa(lp5316
(I4
g3
I4
tp5317
a(I0
S'nn'
p5318
I0
tp5319
a(I4
S'nsubj'
p5320
I0
tp5321
a(I3
S'det'
p5322
I2
tp5323
a(I3
S'nn'
p5324
I3
tp5325
a(I0
S'conj_and'
p5326
I3
tp5327
a(I4
S'prt'
p5328
I5
tp5329
a(I9
S'poss'
p5330
I7
tp5331
a(I9
S'amod'
p5332
I8
tp5333
a(I4
S'prep_for'
p5334
I9
tp5335
a(I9
S'prep_in'
p5336
I11
tp5337
a(I14
S'nn'
p5338
I13
tp5339
a(I9
S'dep'
p5340
I14
tp5341
a(I14
S'prep_with'
p5342
I16
tp5343
a(I4
S'prep_in'
p5344
I18
tp5345
a(I22
S'neg'
p5346
I20
tp5347
a(I22
S'amod'
p5348
I21
tp5349
a(I25
S'nsubjpass'
p5350
I22
tp5351
a(I25
S'aux'
p5352
I23
tp5353
a(I25
S'auxpass'
p5354
I24
tp5355
a(I4
S'conj_but'
p5356
I25
tp5357
aa(lp5358
(I3
g3
I3
tp5359
a(I0
S'nn'
p5360
I0
tp5361
a(I3
S'nsubj'
p5362
I0
tp5363
a(I0
S'dep'
p5364
I1
tp5365
a(I3
S'aux'
p5366
I2
tp5367
a(I3
S'dobj'
p5368
I4
tp5369
a(I7
S'poss'
p5370
I6
tp5371
a(I3
S'prep_from'
p5372
I7
tp5373
a(I9
S'aux'
p5374
I8
tp5375
a(I7
S'vmod'
p5376
I9
tp5377
a(I10
S'nn'
p5378
I10
tp5379
a(I13
S'poss'
p5380
I10
tp5381
a(I13
S'amod'
p5382
I12
tp5383
a(I9
S'dobj'
p5384
I13
tp5385
a(I16
S'det'
p5386
I15
tp5387
a(I9
S'prep_from'
p5388
I16
tp5389
a(I16
S'prep_of'
p5390
I18
tp5391
a(I21
S'amod'
p5392
I20
tp5393
a(I18
S'conj_and'
p5394
I21
tp5395
a(I24
S'nn'
p5396
I23
tp5397
a(I18
S'conj_and'
p5398
I24
tp5399
aa(lp5400
(I2
g3
I2
tp5401
a(I0
S'nn'
p5402
I0
tp5403
a(I2
S'nsubj'
p5404
I0
tp5405
a(I2
S'aux'
p5406
I1
tp5407
a(I4
S'det'
p5408
I3
tp5409
a(I4
S'nn'
p5410
I4
tp5411
a(I2
S'dobj'
p5412
I4
tp5413
a(I4
S'prepc_of'
p5414
I6
tp5415
a(I8
S'det'
p5416
I7
tp5417
a(I6
S'dobj'
p5418
I8
tp5419
a(I10
S'nn'
p5420
I10
tp5421
a(I8
S'prep_of'
p5422
I10
tp5423
aa(lp5424
(I0
g3
I0
tp5425
aa(lp5426
(I0
g3
I0
tp5427
a(I0
S'num'
p5428
I1
tp5429
a(I0
S'dep'
p5430
I2
tp5431
a(I2
S'num'
p5432
I3
tp5433
aa(lp5434
(I0
g3
I0
tp5435
a(I0
S'dep'
p5436
I2
tp5437
a(I2
S'dep'
p5438
I4
tp5439
aa(lp5440
(I2
g3
I2
tp5441
a(I1
S'amod'
p5442
I0
tp5443
a(I2
S'nsubj'
p5444
I1
tp5445
a(I4
S'amod'
p5446
I3
tp5447
a(I2
S'dobj'
p5448
I4
tp5449
a(I2
S'prepc_after'
p5450
I6
tp5451
a(I8
S'num'
p5452
I7
tp5453
a(I6
S'dobj'
p5454
I8
tp5455
a(I10
S'nn'
p5456
I9
tp5457
a(I6
S'npadvmod'
p5458
I10
tp5459
a(I6
S'prep_from'
p5460
I12
tp5461
a(I12
S'conj_and'
p5462
I14
tp5463
aa(lp5464
(I21
g3
I21
tp5465
a(I2
S'nn'
p5466
I0
tp5467
a(I2
S'nn'
p5468
I1
tp5469
a(I21
S'nsubj'
p5470
I2
tp5471
a(I2
S'vmod'
p5472
I3
tp5473
a(I3
S'prep_on'
p5474
I5
tp5475
a(I3
S'tmod'
p5476
I5
tp5477
a(I5
S'num'
p5478
I5
tp5479
a(I17
S'mark'
p5480
I6
tp5481
a(I9
S'det'
p5482
I7
tp5483
a(I9
S'amod'
p5484
I8
tp5485
a(I17
S'nsubjpass'
p5486
I9
tp5487
a(I12
S'amod'
p5488
I11
tp5489
a(I9
S'prep_of'
p5490
I12
tp5491
a(I15
S'det'
p5492
I14
tp5493
a(I15
S'nn'
p5494
I15
tp5495
a(I12
S'conj_and'
p5496
I15
tp5497
a(I17
S'auxpass'
p5498
I16
tp5499
a(I3
S'ccomp'
p5500
I17
tp5501
a(I20
S'amod'
p5502
I19
tp5503
a(I17
S'prep_after'
p5504
I20
tp5505
a(I23
S'num'
p5506
I22
tp5507
a(I21
S'dobj'
p5508
I23
tp5509
a(I25
S'nn'
p5510
I24
tp5511
a(I21
S'npadvmod'
p5512
I25
tp5513
a(I21
S'prep_from'
p5514
I27
tp5515
a(I27
S'conj_and'
p5516
I29
tp5517
aa(lp5518
(I2
g3
I2
tp5519
a(I1
S'det'
p5520
I0
tp5521
a(I1
S'nn'
p5522
I1
tp5523
a(I1
S'nn'
p5524
I1
tp5525
a(I2
S'nsubj'
p5526
I1
tp5527
a(I5
S'amod'
p5528
I3
tp5529
a(I5
S'amod'
p5530
I4
tp5531
a(I5
S'nn'
p5532
I5
tp5533
a(I5
S'nn'
p5534
I5
tp5535
a(I2
S'dobj'
p5536
I5
tp5537
a(I7
S'auxpass'
p5538
I6
tp5539
a(I5
S'rcmod'
p5540
I7
tp5541
a(I7
S'prep_on'
p5542
I9
tp5543
a(I7
S'tmod'
p5544
I9
tp5545
a(I9
S'num'
p5546
I9
tp5547
a(I14
S'det'
p5548
I11
tp5549
a(I14
S'amod'
p5550
I12
tp5551
a(I14
S'nn'
p5552
I13
tp5553
a(I7
S'prep_in'
p5554
I14
tp5555
a(I14
S'prep_of'
p5556
I16
tp5557
a(I20
S'poss'
p5558
I18
tp5559
a(I16
S'prep_for'
p5560
I20
tp5561
a(I25
S'det'
p5562
I22
tp5563
a(I25
S'nn'
p5564
I23
tp5565
a(I25
S'nn'
p5566
I24
tp5567
a(I20
S'prep_in'
p5568
I25
tp5569
a(I2
S'prep_from'
p5570
I27
tp5571
a(I2
S'prep_to'
p5572
I29
tp5573
a(I29
S'prep_via'
p5574
I31
tp5575
aa(lp5576
(I27
g3
I27
tp5577
a(I3
S'det'
p5578
I0
tp5579
a(I3
S'nn'
p5580
I1
tp5581
a(I3
S'nn'
p5582
I2
tp5583
a(I27
S'nsubj'
p5584
I3
tp5585
a(I6
S'mark'
p5586
I4
tp5587
a(I6
S'nsubj'
p5588
I5
tp5589
a(I3
S'dep'
p5590
I6
tp5591
a(I6
S'dobj'
p5592
I7
tp5593
a(I9
S'nn'
p5594
I9
tp5595
a(I9
S'nn'
p5596
I9
tp5597
a(I9
S'nn'
p5598
I9
tp5599
a(I6
S'prep_to'
p5600
I9
tp5601
a(I19
S'advmod'
p5602
I10
tp5603
a(I14
S'poss'
p5604
I11
tp5605
a(I14
S'amod'
p5606
I13
tp5607
a(I19
S'nsubjpass'
p5608
I14
tp5609
a(I16
S'nn'
p5610
I16
tp5611
a(I16
S'nn'
p5612
I16
tp5613
a(I14
S'appos'
p5614
I16
tp5615
a(I19
S'auxpass'
p5616
I18
tp5617
a(I6
S'advcl'
p5618
I19
tp5619
a(I19
S'prep_on'
p5620
I21
tp5621
a(I19
S'tmod'
p5622
I21
tp5623
a(I21
S'num'
p5624
I21
tp5625
a(I24
S'mwe'
p5626
I23
tp5627
a(I25
S'quantmod'
p5628
I24
tp5629
a(I26
S'num'
p5630
I25
tp5631
a(I19
S'prep_with'
p5632
I26
tp5633
a(I29
S'num'
p5634
I28
tp5635
a(I30
S'nsubj'
p5636
I29
tp5637
a(I27
S'xcomp'
p5638
I30
tp5639
a(I30
S'prep_of'
p5640
I32
tp5641
aa(lp5642
(I3
g3
I3
tp5643
a(I3
S'dep'
p5644
I0
tp5645
a(I3
S'nn'
p5646
I2
tp5647
a(I3
S'prep_on'
p5648
I5
tp5649
a(I3
S'tmod'
p5650
I5
tp5651
a(I5
S'num'
p5652
I5
tp5653
a(I7
S'advmod'
p5654
I6
tp5655
a(I3
S'vmod'
p5656
I7
tp5657
a(I9
S'det'
p5658
I8
tp5659
a(I9
S'nn'
p5660
I9
tp5661
a(I10
S'nsubj'
p5662
I9
tp5663
a(I7
S'ccomp'
p5664
I10
tp5665
a(I12
S'amod'
p5666
I11
tp5667
a(I10
S'dobj'
p5668
I12
tp5669
a(I15
S'mark'
p5670
I13
tp5671
a(I15
S'nsubj'
p5672
I14
tp5673
a(I10
S'advcl'
p5674
I15
tp5675
a(I15
S'prt'
p5676
I16
tp5677
a(I19
S'det'
p5678
I17
tp5679
a(I19
S'nn'
p5680
I18
tp5681
a(I15
S'dobj'
p5682
I19
tp5683
a(I23
S'det'
p5684
I20
tp5685
a(I23
S'amod'
p5686
I21
tp5687
a(I23
S'amod'
p5688
I22
tp5689
a(I15
S'npadvmod'
p5690
I23
tp5691
a(I15
S'prep_from'
p5692
I25
tp5693
a(I15
S'prep_to'
p5694
I27
tp5695
aa(lp5696
(I14
g3
I14
tp5697
a(I2
S'poss'
p5698
I0
tp5699
a(I14
S'nsubj'
p5700
I2
tp5701
a(I6
S'poss'
p5702
I4
tp5703
a(I2
S'conj_and'
p5704
I6
tp5705
a(I6
S'conj_and'
p5706
I8
tp5707
a(I12
S'dep'
p5708
I10
tp5709
a(I6
S'dep'
p5710
I12
tp5711
a(I14
S'cop'
p5712
I13
tp5713
a(I19
S'poss'
p5714
I16
tp5715
a(I19
S'amod'
p5716
I18
tp5717
a(I14
S'prep_of'
p5718
I19
tp5719
a(I22
S'auxpass'
p5720
I21
tp5721
a(I14
S'conj_and'
p5722
I22
tp5723
a(I22
S'prep_on'
p5724
I24
tp5725
a(I22
S'tmod'
p5726
I24
tp5727
a(I24
S'num'
p5728
I24
tp5729
a(I22
S'prep_in'
p5730
I26
tp5731
aa(lp5732
(I3
g3
I3
tp5733
a(I2
S'det'
p5734
I0
tp5735
a(I2
S'num'
p5736
I1
tp5737
a(I3
S'nsubj'
p5738
I2
tp5739
a(I3
S'dobj'
p5740
I4
tp5741
a(I7
S'nsubj'
p5742
I5
tp5743
a(I7
S'aux'
p5744
I6
tp5745
a(I4
S'rcmod'
p5746
I7
tp5747
a(I9
S'advmod'
p5748
I8
tp5749
a(I10
S'quantmod'
p5750
I9
tp5751
a(I11
S'num'
p5752
I10
tp5753
a(I7
S'dobj'
p5754
I11
tp5755
a(I11
S'prep_of'
p5756
I13
tp5757
aa(lp5758
(I2
g3
I2
tp5759
a(I2
S'nsubj'
p5760
I0
tp5761
a(I2
S'advmod'
p5762
I1
tp5763
a(I4
S'mwe'
p5764
I3
tp5765
a(I5
S'quantmod'
p5766
I4
tp5767
a(I6
S'num'
p5768
I5
tp5769
a(I2
S'dobj'
p5770
I6
tp5771
a(I6
S'prep_of'
p5772
I8
tp5773
a(I11
S'det'
p5774
I10
tp5775
a(I8
S'conj_and'
p5776
I11
tp5777
a(I17
S'num'
p5778
I13
tp5779
a(I13
S'dep'
p5780
I14
tp5781
a(I13
S'number'
p5782
I15
tp5783
a(I17
S'nn'
p5784
I16
tp5785
a(I8
S'conj_and'
p5786
I17
tp5787
a(I20
S'det'
p5788
I19
tp5789
a(I17
S'prep_following'
p5790
I20
tp5791
a(I23
S'det'
p5792
I22
tp5793
a(I25
S'poss'
p5794
I23
tp5795
a(I20
S'prep_at'
p5796
I25
tp5797
aa(lp5798
(I1
g3
I1
tp5799
a(I1
S'nsubj'
p5800
I0
tp5801
a(I1
S'dobj'
p5802
I2
tp5803
a(I7
S'det'
p5804
I4
tp5805
a(I7
S'amod'
p5806
I5
tp5807
a(I7
S'nn'
p5808
I6
tp5809
a(I2
S'prep_of'
p5810
I7
tp5811
a(I10
S'det'
p5812
I9
tp5813
a(I7
S'prep_in'
p5814
I10
tp5815
aa(lp5816
(I1
g3
I1
tp5817
a(I1
S'nsubj'
p5818
I0
tp5819
a(I7
S'mark'
p5820
I2
tp5821
a(I7
S'nsubj'
p5822
I3
tp5823
a(I6
S'num'
p5824
I5
tp5825
a(I3
S'prep_of'
p5826
I6
tp5827
a(I1
S'advcl'
p5828
I7
tp5829
a(I9
S'num'
p5830
I8
tp5831
a(I7
S'dobj'
p5832
I9
tp5833
a(I18
S'nsubj'
p5834
I10
tp5835
a(I10
S'conj_or'
p5836
I12
tp5837
a(I10
S'prep_of'
p5838
I14
tp5839
a(I17
S'num'
p5840
I16
tp5841
a(I14
S'conj_or'
p5842
I17
tp5843
a(I9
S'rcmod'
p5844
I18
tp5845
a(I20
S'num'
p5846
I19
tp5847
a(I18
S'dobj'
p5848
I20
tp5849
a(I27
S'nsubj'
p5850
I21
tp5851
a(I21
S'conj_or'
p5852
I23
tp5853
a(I21
S'prep_of'
p5854
I25
tp5855
a(I27
S'aux'
p5856
I26
tp5857
a(I20
S'rcmod'
p5858
I27
tp5859
a(I30
S'det'
p5860
I28
tp5861
a(I30
S'nn'
p5862
I29
tp5863
a(I27
S'dobj'
p5864
I30
tp5865
aa(lp5866
(I0
g3
I0
tp5867
aa(lp5868
(I0
g3
I0
tp5869
a(I2
S'num'
p5870
I1
tp5871
a(I0
S'dep'
p5872
I2
tp5873
a(I0
S'dep'
p5874
I3
tp5875
aa(lp5876
(I0
g3
I0
tp5877
a(I0
S'dep'
p5878
I2
tp5879
a(I2
S'dep'
p5880
I4
tp5881
a(I4
S'dep'
p5882
I6
tp5883
aa.