(lp1
(lp2
(I0
S'ROOT'
p3
I0
tp4
a(I0
S'punct'
p5
I1
tp6
a(I0
S'dep'
p7
I2
tp8
a(I2
S'punct'
p9
I3
tp10
a(I2
S'dep'
p11
I4
tp12
aa(lp13
(I5
g3
I5
tp14
a(I1
S'det'
p15
I0
tp16
a(I5
S'nsubj'
p17
I1
tp18
a(I4
S'punct'
p19
I2
tp20
a(I4
S'case'
p21
I3
tp22
a(I4
S'compound'
p23
I4
tp24
a(I4
S'compound'
p25
I4
tp26
a(I1
S'nmod:based'
p27
I4
tp28
a(I4
S'case'
p29
I4
tp30
a(I4
S'compound'
p31
I4
tp32
a(I4
S'nmod:for'
p33
I4
tp34
a(I8
S'case'
p35
I6
tp36
a(I8
S'det'
p37
I7
tp38
a(I5
S'nmod:in'
p39
I8
tp40
a(I12
S'mark'
p41
I9
tp42
a(I12
S'nsubj'
p43
I10
tp44
a(I12
S'aux'
p45
I11
tp46
a(I5
S'ccomp'
p47
I12
tp48
a(I14
S'det'
p49
I13
tp50
a(I12
S'dobj'
p51
I14
tp52
a(I14
S'punct'
p53
I15
tp54
a(I17
S'compound'
p55
I16
tp56
a(I14
S'dep'
p57
I17
tp58
a(I20
S'case'
p59
I18
tp60
a(I20
S'nummod'
p61
I19
tp62
a(I17
S'nmod:for'
p63
I20
tp64
a(I14
S'punct'
p65
I21
tp66
a(I23
S'compound'
p67
I22
tp68
a(I14
S'dep'
p69
I23
tp70
a(I5
S'punct'
p71
I24
tp72
aa(lp73
(I5
g3
I5
tp74
a(I1
S'det'
p75
I0
tp76
a(I5
S'nsubj'
p77
I1
tp78
a(I4
S'punct'
p79
I2
tp80
a(I4
S'case'
p81
I3
tp82
a(I4
S'compound'
p83
I4
tp84
a(I4
S'compound'
p85
I4
tp86
a(I1
S'nmod:based'
p87
I4
tp88
a(I4
S'case'
p89
I4
tp90
a(I4
S'compound'
p91
I4
tp92
a(I4
S'nmod:for'
p93
I4
tp94
a(I8
S'case'
p95
I6
tp96
a(I8
S'det'
p97
I7
tp98
a(I5
S'nmod:in'
p99
I8
tp100
a(I12
S'mark'
p101
I9
tp102
a(I12
S'nsubj'
p103
I10
tp104
a(I12
S'aux'
p105
I11
tp106
a(I5
S'ccomp'
p107
I12
tp108
a(I14
S'det'
p109
I13
tp110
a(I12
S'dobj'
p111
I14
tp112
a(I14
S'punct'
p113
I15
tp114
a(I17
S'compound'
p115
I16
tp116
a(I14
S'dep'
p117
I17
tp118
a(I20
S'case'
p119
I18
tp120
a(I20
S'nummod'
p121
I19
tp122
a(I17
S'nmod:for'
p123
I20
tp124
a(I14
S'punct'
p125
I21
tp126
a(I23
S'compound'
p127
I22
tp128
a(I14
S'dep'
p129
I23
tp130
a(I5
S'punct'
p131
I24
tp132
aa(lp133
(I10
g3
I10
tp134
a(I1
S'case'
p135
I0
tp136
a(I10
S'nmod:on'
p137
I1
tp138
a(I10
S'nmod:tmod'
p139
I1
tp140
a(I1
S'nummod'
p141
I1
tp142
a(I8
S'amod'
p143
I2
tp144
a(I5
S'punct'
p145
I3
tp146
a(I5
S'dep'
p147
I4
tp148
a(I2
S'dep'
p149
I5
tp150
a(I5
S'punct'
p151
I6
tp152
a(I8
S'compound'
p153
I7
tp154
a(I9
S'compound'
p155
I8
tp156
a(I9
S'compound'
p157
I9
tp158
a(I9
S'compound'
p159
I9
tp160
a(I10
S'nsubj'
p161
I9
tp162
a(I9
S'case'
p163
I9
tp164
a(I9
S'compound'
p165
I9
tp166
a(I9
S'nmod:for'
p167
I9
tp168
a(I14
S'case'
p169
I11
tp170
a(I14
S'det'
p171
I12
tp172
a(I14
S'amod'
p173
I13
tp174
a(I10
S'nmod:for'
p175
I14
tp176
a(I19
S'case'
p177
I15
tp178
a(I19
S'det'
p179
I16
tp180
a(I19
S'compound'
p181
I17
tp182
a(I19
S'nummod'
p183
I17
tp184
a(I19
S'compound'
p185
I18
tp186
a(I10
S'nmod:since'
p187
I19
tp188
a(I22
S'case'
p189
I20
tp190
a(I22
S'det'
p191
I21
tp192
a(I19
S'nmod:on'
p193
I22
tp194
a(I10
S'punct'
p195
I23
tp196
aa(lp197
(I2
g3
I2
tp198
a(I0
S'compound'
p199
I0
tp200
a(I0
S'compound'
p201
I0
tp202
a(I2
S'nsubjpass'
p203
I0
tp204
a(I0
S'case'
p205
I0
tp206
a(I0
S'compound'
p207
I0
tp208
a(I0
S'nmod:for'
p209
I0
tp210
a(I2
S'auxpass'
p211
I1
tp212
a(I4
S'case'
p213
I3
tp214
a(I2
S'nmod:in'
p215
I4
tp216
a(I2
S'punct'
p217
I5
tp218
aa(lp219
(I2
g3
I2
tp220
a(I0
S'compound'
p221
I0
tp222
a(I0
S'compound'
p223
I0
tp224
a(I2
S'nsubjpass'
p225
I0
tp226
a(I0
S'case'
p227
I0
tp228
a(I0
S'compound'
p229
I0
tp230
a(I0
S'nmod:for'
p231
I0
tp232
a(I2
S'auxpass'
p233
I1
tp234
a(I5
S'case'
p235
I3
tp236
a(I5
S'det'
p237
I4
tp238
a(I5
S'compound'
p239
I5
tp240
a(I5
S'compound'
p241
I5
tp242
a(I5
S'nmod:poss'
p243
I5
tp244
a(I5
S'case'
p245
I5
tp246
a(I2
S'nmod:agent'
p247
I5
tp248
a(I2
S'punct'
p249
I6
tp250
aa(lp251
(I2
g3
I2
tp252
a(I2
S'case'
p253
I0
tp254
a(I2
S'det'
p255
I1
tp256
a(I3
S'compound'
p257
I3
tp258
a(I3
S'compound'
p259
I3
tp260
a(I2
S'dep'
p261
I3
tp262
a(I4
S'mark'
p263
I3
tp264
a(I3
S'compound'
p265
I3
tp266
a(I4
S'nsubj'
p267
I3
tp268
a(I3
S'acl:relcl'
p269
I4
tp270
a(I2
S'punct'
p271
I5
tp272
aa(lp273
(I2
g3
I2
tp274
a(I2
S'nsubj'
p275
I0
tp276
a(I2
S'aux'
p277
I1
tp278
a(I13
S'det'
p279
I3
tp280
a(I13
S'amod'
p281
I4
tp282
a(I10
S'punct'
p283
I5
tp284
a(I7
S'compound'
p285
I6
tp286
a(I10
S'dep'
p287
I7
tp288
a(I9
S'case'
p289
I8
tp290
a(I7
S'nmod:for'
p291
I9
tp292
a(I4
S'dep'
p293
I10
tp294
a(I10
S'punct'
p295
I11
tp296
a(I13
S'compound'
p297
I12
tp298
a(I2
S'dobj'
p299
I13
tp300
a(I2
S'punct'
p301
I14
tp302
aa(lp303
(I1
g3
I1
tp304
a(I1
S'det'
p305
I0
tp306
a(I1
S'case'
p307
I2
tp308
a(I1
S'amod'
p309
I3
tp310
a(I1
S'punct'
p311
I4
tp312
a(I6
S'compound'
p313
I5
tp314
a(I11
S'nsubj'
p315
I6
tp316
a(I11
S'cop'
p317
I7
tp318
a(I11
S'case'
p319
I8
tp320
a(I11
S'nummod'
p321
I9
tp322
a(I11
S'compound'
p323
I10
tp324
a(I1
S'dep'
p325
I11
tp326
a(I27
S'case'
p327
I12
tp328
a(I27
S'compound'
p329
I13
tp330
a(I27
S'punct'
p331
I14
tp332
a(I27
S'appos'
p333
I15
tp334
a(I27
S'punct'
p335
I16
tp336
a(I27
S'appos'
p337
I17
tp338
a(I27
S'punct'
p339
I18
tp340
a(I27
S'appos'
p341
I19
tp342
a(I27
S'punct'
p343
I20
tp344
a(I27
S'appos'
p345
I21
tp346
a(I27
S'punct'
p347
I22
tp348
a(I27
S'appos'
p349
I23
tp350
a(I27
S'punct'
p351
I24
tp352
a(I27
S'appos'
p353
I25
tp354
a(I27
S'punct'
p355
I26
tp356
a(I27
S'appos'
p357
I27
tp358
a(I11
S'nmod:including'
p359
I27
tp360
a(I27
S'punct'
p361
I28
tp362
a(I27
S'appos'
p363
I29
tp364
a(I29
S'punct'
p365
I30
tp366
a(I29
S'conj:and'
p367
I31
tp368
a(I29
S'cc'
p369
I32
tp370
a(I29
S'conj:and'
p371
I33
tp372
a(I1
S'punct'
p373
I34
tp374
aa(lp375
(I11
g3
I11
tp376
a(I1
S'det'
p377
I0
tp378
a(I11
S'nmod:poss'
p379
I1
tp380
a(I1
S'case'
p381
I2
tp382
a(I11
S'amod'
p383
I3
tp384
a(I7
S'punct'
p385
I4
tp386
a(I6
S'compound'
p387
I5
tp388
a(I7
S'nsubj'
p389
I6
tp390
a(I11
S'dep'
p391
I7
tp392
a(I9
S'case'
p393
I8
tp394
a(I7
S'nmod:to'
p395
I9
tp396
a(I7
S'punct'
p397
I10
tp398
a(I11
S'dep'
p399
I12
tp400
a(I16
S'case'
p401
I13
tp402
a(I16
S'compound'
p403
I14
tp404
a(I16
S'compound'
p405
I15
tp406
a(I12
S'nmod:in'
p407
I16
tp408
a(I16
S'cc'
p409
I17
tp410
a(I16
S'conj:and'
p411
I18
tp412
a(I11
S'punct'
p413
I19
tp414
a(I21
S'compound'
p415
I20
tp416
a(I11
S'dep'
p417
I21
tp418
a(I21
S'dep'
p419
I22
tp420
a(I11
S'punct'
p421
I23
tp422
aa(lp423
(I11
g3
I11
tp424
a(I1
S'det'
p425
I0
tp426
a(I11
S'nmod:poss'
p427
I1
tp428
a(I1
S'case'
p429
I2
tp430
a(I11
S'amod'
p431
I3
tp432
a(I7
S'punct'
p433
I4
tp434
a(I6
S'compound'
p435
I5
tp436
a(I7
S'nsubj'
p437
I6
tp438
a(I11
S'dep'
p439
I7
tp440
a(I9
S'case'
p441
I8
tp442
a(I7
S'nmod:to'
p443
I9
tp444
a(I7
S'punct'
p445
I10
tp446
a(I11
S'dep'
p447
I12
tp448
a(I16
S'case'
p449
I13
tp450
a(I16
S'compound'
p451
I14
tp452
a(I16
S'compound'
p453
I15
tp454
a(I12
S'nmod:in'
p455
I16
tp456
a(I16
S'cc'
p457
I17
tp458
a(I16
S'conj:and'
p459
I18
tp460
a(I11
S'punct'
p461
I19
tp462
a(I21
S'compound'
p463
I20
tp464
a(I11
S'dep'
p465
I21
tp466
a(I21
S'dep'
p467
I22
tp468
a(I11
S'punct'
p469
I23
tp470
aa(lp471
(I1
g3
I1
tp472
a(I1
S'nsubj'
p473
I0
tp474
a(I3
S'mark'
p475
I2
tp476
a(I1
S'advcl'
p477
I3
tp478
a(I5
S'case'
p479
I4
tp480
a(I3
S'nmod:with'
p481
I5
tp482
a(I5
S'cc'
p483
I6
tp484
a(I5
S'conj:and'
p485
I7
tp486
a(I3
S'punct'
p487
I8
tp488
a(I3
S'dep'
p489
I9
tp490
a(I9
S'dobj'
p491
I10
tp492
a(I1
S'punct'
p493
I11
tp494
aa(lp495
(I3
g3
I3
tp496
a(I1
S'det'
p497
I0
tp498
a(I3
S'nsubj'
p499
I1
tp500
a(I3
S'aux'
p501
I2
tp502
a(I5
S'amod'
p503
I4
tp504
a(I3
S'dobj'
p505
I5
tp506
a(I5
S'punct'
p507
I6
tp508
a(I8
S'amod'
p509
I7
tp510
a(I5
S'dep'
p511
I8
tp512
a(I11
S'case'
p513
I9
tp514
a(I11
S'amod'
p515
I10
tp516
a(I8
S'nmod:including'
p517
I11
tp518
a(I11
S'acl'
p519
I12
tp520
a(I14
S'case'
p521
I13
tp522
a(I12
S'nmod:to'
p523
I14
tp524
a(I11
S'punct'
p525
I15
tp526
a(I17
S'det'
p527
I16
tp528
a(I11
S'conj:and'
p529
I17
tp530
a(I19
S'case'
p531
I18
tp532
a(I17
S'nmod:of'
p533
I19
tp534
a(I22
S'case'
p535
I20
tp536
a(I22
S'amod'
p537
I21
tp538
a(I19
S'nmod:in'
p539
I22
tp540
a(I11
S'cc'
p541
I23
tp542
a(I25
S'amod'
p543
I24
tp544
a(I11
S'conj:and'
p545
I25
tp546
a(I27
S'nsubj'
p547
I26
tp548
a(I25
S'acl:relcl'
p549
I27
tp550
a(I27
S'dobj'
p551
I28
tp552
a(I28
S'cc'
p553
I29
tp554
a(I28
S'conj:and'
p555
I30
tp556
a(I3
S'punct'
p557
I31
tp558
aa(lp559
(I3
g3
I3
tp560
a(I1
S'det'
p561
I0
tp562
a(I3
S'nsubj'
p563
I1
tp564
a(I3
S'aux'
p565
I2
tp566
a(I5
S'det'
p567
I4
tp568
a(I3
S'dobj'
p569
I5
tp570
a(I8
S'case'
p571
I6
tp572
a(I8
S'det'
p573
I7
tp574
a(I5
S'nmod:of'
p575
I8
tp576
a(I10
S'mark'
p577
I9
tp578
a(I8
S'acl'
p579
I10
tp580
a(I10
S'dobj'
p581
I11
tp582
a(I11
S'cc'
p583
I12
tp584
a(I14
S'det'
p585
I13
tp586
a(I16
S'nmod:poss'
p587
I14
tp588
a(I14
S'case'
p589
I15
tp590
a(I11
S'conj:and'
p591
I16
tp592
a(I18
S'mark'
p593
I17
tp594
a(I10
S'advcl'
p595
I18
tp596
a(I20
S'compound'
p597
I19
tp598
a(I18
S'dobj'
p599
I20
tp600
a(I18
S'cc'
p601
I21
tp602
a(I18
S'conj:and'
p603
I22
tp604
a(I24
S'amod'
p605
I23
tp606
a(I22
S'dobj'
p607
I24
tp608
a(I3
S'punct'
p609
I25
tp610
aa(lp611
(I4
g3
I4
tp612
a(I1
S'case'
p613
I0
tp614
a(I4
S'nmod:in'
p615
I1
tp616
a(I1
S'nummod'
p617
I1
tp618
a(I3
S'compound'
p619
I2
tp620
a(I4
S'nsubj'
p621
I3
tp622
a(I6
S'det'
p623
I5
tp624
a(I4
S'dobj'
p625
I6
tp626
a(I6
S'punct'
p627
I7
tp628
a(I9
S'compound'
p629
I8
tp630
a(I6
S'dep'
p631
I9
tp632
a(I11
S'nsubj'
p633
I10
tp634
a(I9
S'acl:relcl'
p635
I11
tp636
a(I13
S'det'
p637
I12
tp638
a(I11
S'dobj'
p639
I13
tp640
a(I15
S'mark'
p641
I14
tp642
a(I11
S'xcomp'
p643
I15
tp644
a(I17
S'mark'
p645
I16
tp646
a(I15
S'xcomp'
p647
I17
tp648
a(I17
S'dobj'
p649
I18
tp650
a(I4
S'punct'
p651
I19
tp652
aa(lp653
(I0
g3
I0
tp654
aa(lp655
(I0
g3
I0
tp656
a(I0
S'compound'
p657
I0
tp658
a(I3
S'nummod'
p659
I1
tp660
a(I3
S'compound'
p661
I2
tp662
a(I0
S'dep'
p663
I3
tp664
aa(lp665
(I0
g3
I0
tp666
a(I0
S'punct'
p667
I1
tp668
a(I0
S'dep'
p669
I2
tp670
aa(lp671
(I5
g3
I5
tp672
a(I3
S'det'
p673
I0
tp674
a(I3
S'compound'
p675
I1
tp676
a(I3
S'compound'
p677
I1
tp678
a(I3
S'amod'
p679
I2
tp680
a(I5
S'nsubj'
p681
I3
tp682
a(I5
S'aux'
p683
I4
tp684
a(I10
S'det'
p685
I6
tp686
a(I10
S'compound'
p687
I7
tp688
a(I10
S'punct'
p689
I8
tp690
a(I10
S'amod'
p691
I9
tp692
a(I5
S'dobj'
p693
I10
tp694
a(I12
S'case'
p695
I11
tp696
a(I12
S'compound'
p697
I12
tp698
a(I5
S'nmod:to'
p699
I12
tp700
a(I13
S'det'
p701
I13
tp702
a(I12
S'nmod:tmod'
p703
I13
tp704
a(I15
S'mark'
p705
I14
tp706
a(I12
S'acl'
p707
I15
tp708
a(I18
S'det'
p709
I16
tp710
a(I18
S'amod'
p711
I17
tp712
a(I22
S'nmod:poss'
p713
I18
tp714
a(I18
S'case'
p715
I19
tp716
a(I22
S'amod'
p717
I20
tp718
a(I22
S'amod'
p719
I21
tp720
a(I15
S'dobj'
p721
I22
tp722
a(I5
S'punct'
p723
I23
tp724
aa(lp725
(I4
g3
I4
tp726
a(I2
S'det'
p727
I0
tp728
a(I2
S'amod'
p729
I1
tp730
a(I4
S'nsubjpass'
p731
I2
tp732
a(I4
S'auxpass'
p733
I3
tp734
a(I6
S'case'
p735
I5
tp736
a(I4
S'nmod:as'
p737
I6
tp738
a(I15
S'mark'
p739
I7
tp740
a(I13
S'det'
p741
I8
tp742
a(I13
S'compound'
p743
I9
tp744
a(I13
S'amod'
p745
I9
tp746
a(I13
S'compound'
p747
I9
tp748
a(I13
S'compound'
p749
I9
tp750
a(I13
S'nummod'
p751
I10
tp752
a(I13
S'compound'
p753
I11
tp754
a(I13
S'nummod'
p755
I12
tp756
a(I15
S'nsubj'
p757
I13
tp758
a(I15
S'mark'
p759
I14
tp760
a(I6
S'acl'
p761
I15
tp762
a(I16
S'compound'
p763
I16
tp764
a(I19
S'nmod:poss'
p765
I16
tp766
a(I16
S'case'
p767
I17
tp768
a(I19
S'amod'
p769
I18
tp770
a(I15
S'dobj'
p771
I19
tp772
a(I4
S'punct'
p773
I20
tp774
aa(lp775
(I4
g3
I4
tp776
a(I2
S'det'
p777
I0
tp778
a(I2
S'amod'
p779
I1
tp780
a(I4
S'nsubjpass'
p781
I2
tp782
a(I4
S'auxpass'
p783
I3
tp784
a(I6
S'case'
p785
I5
tp786
a(I4
S'nmod:as'
p787
I6
tp788
a(I15
S'mark'
p789
I7
tp790
a(I13
S'det'
p791
I8
tp792
a(I13
S'compound'
p793
I9
tp794
a(I13
S'amod'
p795
I9
tp796
a(I13
S'compound'
p797
I9
tp798
a(I13
S'compound'
p799
I9
tp800
a(I13
S'nummod'
p801
I10
tp802
a(I13
S'compound'
p803
I11
tp804
a(I13
S'nummod'
p805
I12
tp806
a(I15
S'nsubj'
p807
I13
tp808
a(I15
S'mark'
p809
I14
tp810
a(I6
S'acl'
p811
I15
tp812
a(I16
S'compound'
p813
I16
tp814
a(I19
S'nmod:poss'
p815
I16
tp816
a(I16
S'case'
p817
I17
tp818
a(I19
S'amod'
p819
I18
tp820
a(I15
S'dobj'
p821
I19
tp822
a(I4
S'punct'
p823
I20
tp824
aa(lp825
(I3
g3
I3
tp826
a(I2
S'det'
p827
I0
tp828
a(I2
S'compound'
p829
I1
tp830
a(I3
S'nsubj'
p831
I2
tp832
a(I5
S'det'
p833
I4
tp834
a(I14
S'nsubjpass'
p835
I5
tp836
a(I8
S'case'
p837
I6
tp838
a(I8
S'det'
p839
I7
tp840
a(I5
S'nmod:by'
p841
I8
tp842
a(I12
S'case'
p843
I9
tp844
a(I12
S'compound'
p845
I10
tp846
a(I12
S'compound'
p847
I11
tp848
a(I8
S'nmod:of'
p849
I12
tp850
a(I14
S'auxpass'
p851
I13
tp852
a(I3
S'ccomp'
p853
I14
tp854
a(I16
S'mark'
p855
I15
tp856
a(I14
S'xcomp'
p857
I16
tp858
a(I18
S'case'
p859
I17
tp860
a(I18
S'det'
p861
I18
tp862
a(I16
S'nmod:for'
p863
I18
tp864
a(I18
S'acl'
p865
I18
tp866
a(I18
S'nmod:tmod'
p867
I18
tp868
a(I18
S'nummod'
p869
I18
tp870
a(I18
S'punct'
p871
I18
tp872
a(I18
S'nummod'
p873
I18
tp874
a(I3
S'punct'
p875
I19
tp876
aa(lp877
(I2
g3
I2
tp878
a(I1
S'det'
p879
I0
tp880
a(I2
S'nsubj'
p881
I1
tp882
a(I7
S'mark'
p883
I3
tp884
a(I5
S'det'
p885
I4
tp886
a(I7
S'nsubj'
p887
I5
tp888
a(I7
S'aux'
p889
I6
tp890
a(I2
S'ccomp'
p891
I7
tp892
a(I12
S'case'
p893
I8
tp894
a(I12
S'det'
p895
I9
tp896
a(I12
S'compound'
p897
I10
tp898
a(I12
S'compound'
p899
I11
tp900
a(I7
S'nmod:on'
p901
I12
tp902
a(I17
S'case'
p903
I13
tp904
a(I17
S'det'
p905
I14
tp906
a(I17
S'compound'
p907
I15
tp908
a(I17
S'amod'
p909
I16
tp910
a(I12
S'nmod:in'
p911
I17
tp912
a(I20
S'nsubj'
p913
I18
tp914
a(I20
S'cop'
p915
I19
tp916
a(I12
S'acl:relcl'
p917
I20
tp918
a(I25
S'case'
p919
I21
tp920
a(I22
S'compound'
p921
I22
tp922
a(I25
S'nmod:poss'
p923
I22
tp924
a(I22
S'case'
p925
I23
tp926
a(I25
S'compound'
p927
I24
tp928
a(I20
S'nmod:of'
p929
I25
tp930
a(I2
S'punct'
p931
I26
tp932
aa(lp933
(I10
g3
I10
tp934
a(I2
S'det'
p935
I0
tp936
a(I2
S'compound'
p937
I1
tp938
a(I10
S'nsubj'
p939
I2
tp940
a(I7
S'case'
p941
I3
tp942
a(I7
S'det'
p943
I4
tp944
a(I7
S'compound'
p945
I5
tp946
a(I7
S'compound'
p947
I6
tp948
a(I2
S'nmod:of'
p949
I7
tp950
a(I10
S'aux'
p951
I8
tp952
a(I10
S'advmod'
p953
I9
tp954
a(I13
S'det'
p955
I11
tp956
a(I13
S'amod'
p957
I12
tp958
a(I10
S'dobj'
p959
I13
tp960
a(I19
S'case'
p961
I14
tp962
a(I15
S'compound'
p963
I15
tp964
a(I19
S'nmod:poss'
p965
I15
tp966
a(I15
S'case'
p967
I16
tp968
a(I19
S'amod'
p969
I17
tp970
a(I19
S'amod'
p971
I18
tp972
a(I13
S'nmod:of'
p973
I19
tp974
a(I13
S'dep'
p975
I20
tp976
a(I10
S'punct'
p977
I21
tp978
aa(lp979
(I5
g3
I5
tp980
a(I1
S'det'
p981
I0
tp982
a(I5
S'nsubj'
p983
I1
tp984
a(I5
S'cop'
p985
I2
tp986
a(I5
S'det'
p987
I3
tp988
a(I5
S'compound'
p989
I4
tp990
a(I5
S'acl'
p991
I6
tp992
a(I8
S'case'
p993
I7
tp994
a(I8
S'compound'
p995
I8
tp996
a(I6
S'nmod:by'
p997
I8
tp998
a(I10
S'case'
p999
I9
tp1000
a(I8
S'nmod:in'
p1001
I10
tp1002
a(I10
S'nummod'
p1003
I10
tp1004
a(I5
S'punct'
p1005
I11
tp1006
aa(lp1007
(I5
g3
I5
tp1008
a(I1
S'det'
p1009
I0
tp1010
a(I5
S'nsubj'
p1011
I1
tp1012
a(I5
S'cop'
p1013
I2
tp1014
a(I5
S'det'
p1015
I3
tp1016
a(I5
S'compound'
p1017
I4
tp1018
a(I5
S'acl'
p1019
I6
tp1020
a(I8
S'case'
p1021
I7
tp1022
a(I8
S'compound'
p1023
I8
tp1024
a(I6
S'nmod:by'
p1025
I8
tp1026
a(I10
S'case'
p1027
I9
tp1028
a(I8
S'nmod:in'
p1029
I10
tp1030
a(I10
S'nummod'
p1031
I10
tp1032
a(I5
S'punct'
p1033
I11
tp1034
aa(lp1035
(I1
g3
I1
tp1036
a(I1
S'nsubj'
p1037
I0
tp1038
a(I2
S'compound'
p1039
I2
tp1040
a(I4
S'nmod:poss'
p1041
I2
tp1042
a(I2
S'case'
p1043
I3
tp1044
a(I1
S'dobj'
p1045
I4
tp1046
a(I5
S'amod'
p1047
I5
tp1048
a(I1
S'nmod:tmod'
p1049
I5
tp1050
a(I1
S'cc'
p1051
I6
tp1052
a(I1
S'conj:but'
p1053
I7
tp1054
a(I14
S'mark'
p1055
I8
tp1056
a(I10
S'det'
p1057
I9
tp1058
a(I14
S'nsubj'
p1059
I10
tp1060
a(I14
S'cop'
p1061
I11
tp1062
a(I14
S'neg'
p1063
I12
tp1064
a(I14
S'det'
p1065
I13
tp1066
a(I7
S'ccomp'
p1067
I14
tp1068
a(I1
S'punct'
p1069
I15
tp1070
aa(lp1071
(I2
g3
I2
tp1072
a(I2
S'nsubj'
p1073
I0
tp1074
a(I2
S'advmod'
p1075
I1
tp1076
a(I4
S'det'
p1077
I3
tp1078
a(I7
S'nsubj'
p1079
I4
tp1080
a(I7
S'cop'
p1081
I5
tp1082
a(I7
S'neg'
p1083
I6
tp1084
a(I2
S'ccomp'
p1085
I7
tp1086
a(I11
S'case'
p1087
I8
tp1088
a(I11
S'det'
p1089
I9
tp1090
a(I11
S'amod'
p1091
I10
tp1092
a(I7
S'nmod:of'
p1093
I11
tp1094
a(I13
S'nsubj'
p1095
I12
tp1096
a(I11
S'acl:relcl'
p1097
I13
tp1098
a(I15
S'mark'
p1099
I14
tp1100
a(I13
S'xcomp'
p1101
I15
tp1102
a(I15
S'nmod'
p1103
I16
tp1104
a(I2
S'punct'
p1105
I17
tp1106
aa(lp1107
(I2
g3
I2
tp1108
a(I2
S'nsubjpass'
p1109
I0
tp1110
a(I2
S'auxpass'
p1111
I1
tp1112
a(I4
S'case'
p1113
I3
tp1114
a(I2
S'nmod:in'
p1115
I4
tp1116
a(I2
S'cc'
p1117
I5
tp1118
a(I11
S'cop'
p1119
I6
tp1120
a(I8
S'det'
p1121
I7
tp1122
a(I11
S'nmod:poss'
p1123
I8
tp1124
a(I8
S'case'
p1125
I9
tp1126
a(I11
S'amod'
p1127
I10
tp1128
a(I2
S'conj:and'
p1129
I11
tp1130
a(I2
S'punct'
p1131
I12
tp1132
aa(lp1133
(I2
g3
I2
tp1134
a(I0
S'compound'
p1135
I0
tp1136
a(I2
S'nsubj'
p1137
I0
tp1138
a(I2
S'aux'
p1139
I1
tp1140
a(I6
S'det'
p1141
I3
tp1142
a(I6
S'compound'
p1143
I4
tp1144
a(I6
S'amod'
p1145
I5
tp1146
a(I2
S'dobj'
p1147
I6
tp1148
a(I9
S'case'
p1149
I7
tp1150
a(I9
S'nmod:poss'
p1151
I8
tp1152
a(I2
S'nmod:to'
p1153
I9
tp1154
a(I2
S'punct'
p1155
I10
tp1156
aa(lp1157
(I1
g3
I1
tp1158
a(I0
S'compound'
p1159
I0
tp1160
a(I1
S'nsubj'
p1161
I0
tp1162
a(I6
S'nmod:poss'
p1163
I2
tp1164
a(I6
S'amod'
p1165
I3
tp1166
a(I6
S'amod'
p1167
I4
tp1168
a(I6
S'compound'
p1169
I5
tp1170
a(I1
S'dobj'
p1171
I6
tp1172
a(I8
S'case'
p1173
I7
tp1174
a(I6
S'nmod:at'
p1175
I8
tp1176
a(I10
S'case'
p1177
I9
tp1178
a(I1
S'nmod:in'
p1179
I10
tp1180
a(I12
S'mark'
p1181
I11
tp1182
a(I1
S'advcl'
p1183
I12
tp1184
a(I15
S'nummod'
p1185
I13
tp1186
a(I15
S'amod'
p1187
I14
tp1188
a(I12
S'dobj'
p1189
I15
tp1190
a(I12
S'advcl'
p1191
I16
tp1192
a(I18
S'amod'
p1193
I17
tp1194
a(I16
S'dobj'
p1195
I18
tp1196
a(I18
S'punct'
p1197
I19
tp1198
a(I21
S'compound'
p1199
I20
tp1200
a(I18
S'dep'
p1201
I21
tp1202
a(I25
S'case'
p1203
I22
tp1204
a(I25
S'det'
p1205
I23
tp1206
a(I25
S'nummod'
p1207
I24
tp1208
a(I21
S'nmod:under'
p1209
I25
tp1210
a(I28
S'case'
p1211
I26
tp1212
a(I28
S'det'
p1213
I27
tp1214
a(I28
S'compound'
p1215
I28
tp1216
a(I16
S'nmod:with'
p1217
I28
tp1218
a(I1
S'punct'
p1219
I29
tp1220
aa(lp1221
(I1
g3
I1
tp1222
a(I1
S'det'
p1223
I0
tp1224
a(I1
S'punct'
p1225
I2
tp1226
a(I1
S'dep'
p1227
I3
tp1228
a(I1
S'punct'
p1229
I4
tp1230
a(I6
S'compound'
p1231
I5
tp1232
a(I8
S'nsubj'
p1233
I6
tp1234
a(I8
S'cop'
p1235
I7
tp1236
a(I1
S'parataxis'
p1237
I8
tp1238
a(I11
S'mark'
p1239
I9
tp1240
a(I11
S'auxpass'
p1241
I10
tp1242
a(I8
S'xcomp'
p1243
I11
tp1244
a(I13
S'case'
p1245
I12
tp1246
a(I11
S'nmod:agent'
p1247
I13
tp1248
a(I1
S'punct'
p1249
I14
tp1250
aa(lp1251
(I2
g3
I2
tp1252
a(I2
S'nsubj'
p1253
I0
tp1254
a(I2
S'aux'
p1255
I1
tp1256
a(I2
S'compound:prt'
p1257
I3
tp1258
a(I5
S'det'
p1259
I4
tp1260
a(I2
S'dobj'
p1261
I5
tp1262
a(I9
S'case'
p1263
I6
tp1264
a(I8
S'case'
p1265
I7
tp1266
a(I9
S'advmod'
p1267
I8
tp1268
a(I2
S'nmod:until'
p1269
I9
tp1270
a(I2
S'punct'
p1271
I10
tp1272
aa(lp1273
(I1
g3
I1
tp1274
a(I1
S'nsubj'
p1275
I0
tp1276
a(I4
S'nsubj'
p1277
I2
tp1278
a(I4
S'aux'
p1279
I3
tp1280
a(I1
S'ccomp'
p1281
I4
tp1282
a(I7
S'amod'
p1283
I5
tp1284
a(I7
S'compound'
p1285
I6
tp1286
a(I4
S'dobj'
p1287
I7
tp1288
a(I4
S'advmod'
p1289
I8
tp1290
a(I23
S'advmod'
p1291
I9
tp1292
a(I12
S'det'
p1293
I10
tp1294
a(I12
S'amod'
p1295
I11
tp1296
a(I23
S'nsubjpass'
p1297
I12
tp1298
a(I15
S'case'
p1299
I13
tp1300
a(I15
S'det'
p1301
I14
tp1302
a(I12
S'nmod:of'
p1303
I15
tp1304
a(I17
S'mark'
p1305
I16
tp1306
a(I15
S'dep'
p1307
I17
tp1308
a(I21
S'case'
p1309
I18
tp1310
a(I21
S'det'
p1311
I19
tp1312
a(I21
S'nummod'
p1313
I20
tp1314
a(I17
S'nmod:in'
p1315
I21
tp1316
a(I23
S'auxpass'
p1317
I22
tp1318
a(I4
S'advcl'
p1319
I23
tp1320
a(I1
S'punct'
p1321
I24
tp1322
aa(lp1323
(I0
g3
I0
tp1324
aa(lp1325
(I0
g3
I0
tp1326
a(I0
S'compound'
p1327
I0
tp1328
a(I2
S'compound'
p1329
I1
tp1330
a(I0
S'dep'
p1331
I2
tp1332
a(I0
S'dep'
p1333
I3
tp1334
aa(lp1335
(I0
g3
I0
tp1336
a(I0
S'punct'
p1337
I1
tp1338
a(I0
S'dep'
p1339
I2
tp1340
a(I2
S'punct'
p1341
I3
tp1342
a(I2
S'dep'
p1343
I4
tp1344
aa(lp1345
(I0
g3
I0
tp1346
a(I0
S'punct'
p1347
I1
tp1348
a(I0
S'dep'
p1349
I2
tp1350
a(I2
S'punct'
p1351
I3
tp1352
a(I2
S'dep'
p1353
I4
tp1354
aa(lp1355
(I2
g3
I2
tp1356
a(I1
S'compound'
p1357
I0
tp1358
a(I2
S'nsubj'
p1359
I1
tp1360
a(I4
S'case'
p1361
I3
tp1362
a(I2
S'nmod:on'
p1363
I4
tp1364
a(I4
S'nummod'
p1365
I4
tp1366
a(I4
S'punct'
p1367
I4
tp1368
a(I4
S'nummod'
p1369
I4
tp1370
a(I6
S'case'
p1371
I5
tp1372
a(I2
S'nmod:in'
p1373
I6
tp1374
a(I9
S'case'
p1375
I7
tp1376
a(I9
S'nmod:poss'
p1377
I8
tp1378
a(I6
S'nmod:of'
p1379
I9
tp1380
a(I11
S'mark'
p1381
I10
tp1382
a(I9
S'acl'
p1383
I11
tp1384
a(I13
S'compound'
p1385
I12
tp1386
a(I11
S'dobj'
p1387
I13
tp1388
a(I2
S'punct'
p1389
I14
tp1390
aa(lp1391
(I1
g3
I1
tp1392
a(I1
S'nsubj'
p1393
I0
tp1394
a(I4
S'det'
p1395
I2
tp1396
a(I4
S'compound'
p1397
I3
tp1398
a(I1
S'dobj'
p1399
I4
tp1400
a(I6
S'case'
p1401
I5
tp1402
a(I1
S'nmod:as'
p1403
I6
tp1404
a(I9
S'case'
p1405
I7
tp1406
a(I9
S'det'
p1407
I8
tp1408
a(I6
S'nmod:of'
p1409
I9
tp1410
a(I11
S'mark'
p1411
I10
tp1412
a(I1
S'advcl'
p1413
I11
tp1414
a(I14
S'det'
p1415
I12
tp1416
a(I14
S'amod'
p1417
I13
tp1418
a(I11
S'dobj'
p1419
I14
tp1420
a(I1
S'punct'
p1421
I15
tp1422
aa(lp1423
(I2
g3
I2
tp1424
a(I1
S'compound'
p1425
I0
tp1426
a(I2
S'nsubj'
p1427
I1
tp1428
a(I4
S'case'
p1429
I3
tp1430
a(I2
S'nmod:on'
p1431
I4
tp1432
a(I4
S'nummod'
p1433
I4
tp1434
a(I4
S'punct'
p1435
I4
tp1436
a(I4
S'nummod'
p1437
I4
tp1438
a(I6
S'case'
p1439
I5
tp1440
a(I2
S'nmod:in'
p1441
I6
tp1442
a(I9
S'case'
p1443
I7
tp1444
a(I9
S'nmod:poss'
p1445
I8
tp1446
a(I6
S'nmod:of'
p1447
I9
tp1448
a(I11
S'mark'
p1449
I10
tp1450
a(I9
S'acl'
p1451
I11
tp1452
a(I13
S'compound'
p1453
I12
tp1454
a(I11
S'dobj'
p1455
I13
tp1456
a(I2
S'punct'
p1457
I14
tp1458
aa(lp1459
(I1
g3
I1
tp1460
a(I1
S'nsubj'
p1461
I0
tp1462
a(I4
S'det'
p1463
I2
tp1464
a(I4
S'compound'
p1465
I3
tp1466
a(I1
S'dobj'
p1467
I4
tp1468
a(I6
S'case'
p1469
I5
tp1470
a(I1
S'nmod:as'
p1471
I6
tp1472
a(I9
S'case'
p1473
I7
tp1474
a(I9
S'det'
p1475
I8
tp1476
a(I6
S'nmod:of'
p1477
I9
tp1478
a(I11
S'mark'
p1479
I10
tp1480
a(I1
S'advcl'
p1481
I11
tp1482
a(I14
S'det'
p1483
I12
tp1484
a(I14
S'amod'
p1485
I13
tp1486
a(I11
S'dobj'
p1487
I14
tp1488
a(I1
S'punct'
p1489
I15
tp1490
aa(lp1491
(I4
g3
I4
tp1492
a(I2
S'det'
p1493
I0
tp1494
a(I2
S'amod'
p1495
I1
tp1496
a(I4
S'nsubj'
p1497
I2
tp1498
a(I4
S'aux'
p1499
I3
tp1500
a(I6
S'compound'
p1501
I5
tp1502
a(I4
S'dobj'
p1503
I6
tp1504
a(I8
S'case'
p1505
I7
tp1506
a(I6
S'nmod:against'
p1507
I8
tp1508
a(I11
S'case'
p1509
I9
tp1510
a(I11
S'compound'
p1511
I10
tp1512
a(I6
S'nmod:based'
p1513
I11
tp1514
a(I12
S'compound'
p1515
I12
tp1516
a(I11
S'dep'
p1517
I12
tp1518
a(I12
S'punct'
p1519
I13
tp1520
a(I11
S'cc'
p1521
I14
tp1522
a(I11
S'conj:and'
p1523
I15
tp1524
a(I19
S'case'
p1525
I16
tp1526
a(I19
S'nmod:poss'
p1527
I17
tp1528
a(I17
S'case'
p1529
I18
tp1530
a(I15
S'nmod:of'
p1531
I19
tp1532
a(I11
S'punct'
p1533
I20
tp1534
a(I11
S'dep'
p1535
I21
tp1536
a(I23
S'compound'
p1537
I22
tp1538
a(I21
S'dobj'
p1539
I23
tp1540
a(I4
S'punct'
p1541
I24
tp1542
aa(lp1543
(I2
g3
I2
tp1544
a(I1
S'det'
p1545
I0
tp1546
a(I2
S'nsubj'
p1547
I1
tp1548
a(I4
S'det'
p1549
I3
tp1550
a(I2
S'dobj'
p1551
I4
tp1552
a(I6
S'mark'
p1553
I5
tp1554
a(I4
S'acl'
p1555
I6
tp1556
a(I6
S'advmod'
p1557
I7
tp1558
a(I4
S'punct'
p1559
I8
tp1560
a(I4
S'amod'
p1561
I9
tp1562
a(I9
S'cc'
p1563
I10
tp1564
a(I9
S'conj:and'
p1565
I11
tp1566
a(I2
S'punct'
p1567
I12
tp1568
aa(lp1569
(I4
g3
I4
tp1570
a(I2
S'det'
p1571
I0
tp1572
a(I1
S'amod'
p1573
I1
tp1574
a(I2
S'amod'
p1575
I1
tp1576
a(I4
S'nsubj'
p1577
I2
tp1578
a(I4
S'aux'
p1579
I3
tp1580
a(I6
S'det'
p1581
I5
tp1582
a(I4
S'dobj'
p1583
I6
tp1584
a(I6
S'acl'
p1585
I7
tp1586
a(I10
S'case'
p1587
I8
tp1588
a(I10
S'compound'
p1589
I9
tp1590
a(I7
S'nmod:by'
p1591
I10
tp1592
a(I12
S'mark'
p1593
I11
tp1594
a(I7
S'xcomp'
p1595
I12
tp1596
a(I14
S'det'
p1597
I13
tp1598
a(I12
S'dobj'
p1599
I14
tp1600
a(I17
S'case'
p1601
I15
tp1602
a(I17
S'compound'
p1603
I16
tp1604
a(I14
S'nmod:of'
p1605
I17
tp1606
a(I4
S'punct'
p1607
I18
tp1608
aa(lp1609
(I14
g3
I14
tp1610
a(I1
S'det'
p1611
I0
tp1612
a(I4
S'nsubj'
p1613
I1
tp1614
a(I4
S'cop'
p1615
I2
tp1616
a(I4
S'case'
p1617
I3
tp1618
a(I14
S'dep'
p1619
I4
tp1620
a(I8
S'case'
p1621
I5
tp1622
a(I8
S'amod'
p1623
I6
tp1624
a(I8
S'amod'
p1625
I7
tp1626
a(I4
S'nmod:to'
p1627
I8
tp1628
a(I11
S'case'
p1629
I9
tp1630
a(I11
S'det'
p1631
I10
tp1632
a(I8
S'nmod:of'
p1633
I11
tp1634
a(I14
S'nsubjpass'
p1635
I12
tp1636
a(I14
S'auxpass'
p1637
I13
tp1638
a(I16
S'case'
p1639
I15
tp1640
a(I16
S'compound'
p1641
I16
tp1642
a(I14
S'nmod:in'
p1643
I16
tp1644
a(I14
S'punct'
p1645
I17
tp1646
aa(lp1647
(I7
g3
I7
tp1648
a(I1
S'det'
p1649
I0
tp1650
a(I7
S'nsubj'
p1651
I1
tp1652
a(I3
S'case'
p1653
I2
tp1654
a(I1
S'nmod:of'
p1655
I3
tp1656
a(I5
S'case'
p1657
I4
tp1658
a(I3
S'nmod:for'
p1659
I5
tp1660
a(I7
S'aux'
p1661
I6
tp1662
a(I11
S'det'
p1663
I8
tp1664
a(I10
S'advmod'
p1665
I9
tp1666
a(I11
S'amod'
p1667
I10
tp1668
a(I7
S'xcomp'
p1669
I11
tp1670
a(I14
S'case'
p1671
I12
tp1672
a(I14
S'det'
p1673
I13
tp1674
a(I7
S'nmod:than'
p1675
I14
tp1676
a(I16
S'compound'
p1677
I15
tp1678
a(I16
S'compound'
p1679
I15
tp1680
a(I14
S'dep'
p1681
I16
tp1682
a(I7
S'punct'
p1683
I17
tp1684
aa(lp1685
(I1
g3
I1
tp1686
a(I1
S'det'
p1687
I0
tp1688
a(I1
S'compound'
p1689
I1
tp1690
a(I3
S'nsubj'
p1691
I2
tp1692
a(I1
S'acl:relcl'
p1693
I3
tp1694
a(I5
S'mark'
p1695
I4
tp1696
a(I3
S'xcomp'
p1697
I5
tp1698
a(I8
S'dep'
p1699
I6
tp1700
a(I8
S'punct'
p1701
I7
tp1702
a(I1
S'dep'
p1703
I8
tp1704
a(I10
S'case'
p1705
I9
tp1706
a(I10
S'compound'
p1707
I10
tp1708
a(I8
S'nmod:by'
p1709
I10
tp1710
a(I10
S'cc'
p1711
I11
tp1712
a(I10
S'conj:and'
p1713
I12
tp1714
a(I13
S'det'
p1715
I13
tp1716
a(I8
S'nmod:tmod'
p1717
I13
tp1718
a(I8
S'punct'
p1719
I14
tp1720
aa(lp1721
(I4
g3
I4
tp1722
a(I1
S'det'
p1723
I0
tp1724
a(I4
S'nsubjpass'
p1725
I1
tp1726
a(I4
S'auxpass'
p1727
I2
tp1728
a(I4
S'advmod'
p1729
I3
tp1730
a(I6
S'case'
p1731
I5
tp1732
a(I4
S'nmod:agent'
p1733
I6
tp1734
a(I6
S'punct'
p1735
I7
tp1736
a(I12
S'nmod:poss'
p1737
I8
tp1738
a(I8
S'case'
p1739
I9
tp1740
a(I12
S'amod'
p1741
I10
tp1742
a(I12
S'amod'
p1743
I11
tp1744
a(I6
S'appos'
p1745
I12
tp1746
a(I4
S'punct'
p1747
I13
tp1748
aa(lp1749
(I1
g3
I1
tp1750
a(I1
S'nsubj'
p1751
I0
tp1752
a(I2
S'compound'
p1753
I2
tp1754
a(I1
S'dobj'
p1755
I2
tp1756
a(I4
S'mark'
p1757
I3
tp1758
a(I1
S'xcomp'
p1759
I4
tp1760
a(I7
S'det'
p1761
I5
tp1762
a(I7
S'amod'
p1763
I6
tp1764
a(I4
S'dobj'
p1765
I7
tp1766
a(I9
S'case'
p1767
I8
tp1768
a(I7
S'nmod:of'
p1769
I9
tp1770
a(I1
S'punct'
p1771
I10
tp1772
aa(lp1773
(I3
g3
I3
tp1774
a(I1
S'compound'
p1775
I0
tp1776
a(I3
S'nsubjpass'
p1777
I1
tp1778
a(I3
S'auxpass'
p1779
I2
tp1780
a(I7
S'case'
p1781
I4
tp1782
a(I7
S'det'
p1783
I5
tp1784
a(I7
S'amod'
p1785
I6
tp1786
a(I3
S'nmod:agent'
p1787
I7
tp1788
a(I11
S'case'
p1789
I8
tp1790
a(I11
S'nmod:poss'
p1791
I9
tp1792
a(I11
S'amod'
p1793
I10
tp1794
a(I7
S'nmod:on'
p1795
I11
tp1796
a(I3
S'punct'
p1797
I12
tp1798
aa(lp1799
(I10
g3
I10
tp1800
a(I1
S'det'
p1801
I0
tp1802
a(I10
S'ccomp'
p1803
I1
tp1804
a(I4
S'case'
p1805
I2
tp1806
a(I4
S'amod'
p1807
I3
tp1808
a(I4
S'amod'
p1809
I3
tp1810
a(I1
S'acl:of'
p1811
I4
tp1812
a(I4
S'dep'
p1813
I5
tp1814
a(I4
S'punct'
p1815
I6
tp1816
a(I1
S'acl:relcl'
p1817
I7
tp1818
a(I10
S'punct'
p1819
I8
tp1820
a(I10
S'nsubj'
p1821
I9
tp1822
a(I12
S'mark'
p1823
I11
tp1824
a(I10
S'xcomp'
p1825
I12
tp1826
a(I14
S'det'
p1827
I13
tp1828
a(I12
S'dobj'
p1829
I14
tp1830
a(I20
S'case'
p1831
I15
tp1832
a(I20
S'compound'
p1833
I16
tp1834
a(I20
S'compound'
p1835
I16
tp1836
a(I20
S'punct'
p1837
I17
tp1838
a(I20
S'compound'
p1839
I18
tp1840
a(I20
S'compound'
p1841
I19
tp1842
a(I14
S'nmod:of'
p1843
I20
tp1844
a(I14
S'cc'
p1845
I21
tp1846
a(I29
S'det'
p1847
I22
tp1848
a(I29
S'amod'
p1849
I23
tp1850
a(I29
S'compound'
p1851
I24
tp1852
a(I29
S'compound'
p1853
I25
tp1854
a(I29
S'compound'
p1855
I26
tp1856
a(I29
S'nummod'
p1857
I27
tp1858
a(I29
S'compound'
p1859
I28
tp1860
a(I14
S'conj:and'
p1861
I29
tp1862
a(I31
S'case'
p1863
I30
tp1864
a(I29
S'nmod:on'
p1865
I31
tp1866
a(I31
S'nummod'
p1867
I31
tp1868
a(I31
S'punct'
p1869
I31
tp1870
a(I31
S'nummod'
p1871
I31
tp1872
a(I10
S'punct'
p1873
I32
tp1874
aa(lp1875
(I6
g3
I6
tp1876
a(I1
S'det'
p1877
I0
tp1878
a(I6
S'nsubj'
p1879
I1
tp1880
a(I5
S'case'
p1881
I2
tp1882
a(I5
S'det'
p1883
I3
tp1884
a(I4
S'amod'
p1885
I4
tp1886
a(I5
S'amod'
p1887
I4
tp1888
a(I1
S'nmod:of'
p1889
I5
tp1890
a(I8
S'det'
p1891
I7
tp1892
a(I6
S'dobj'
p1893
I8
tp1894
a(I11
S'mark'
p1895
I9
tp1896
a(I11
S'advmod'
p1897
I10
tp1898
a(I8
S'acl'
p1899
I11
tp1900
a(I13
S'compound'
p1901
I12
tp1902
a(I11
S'dobj'
p1903
I13
tp1904
a(I13
S'cc'
p1905
I14
tp1906
a(I17
S'nmod:poss'
p1907
I15
tp1908
a(I17
S'compound'
p1909
I16
tp1910
a(I13
S'conj:and'
p1911
I17
tp1912
a(I19
S'case'
p1913
I18
tp1914
a(I11
S'advcl:as'
p1915
I19
tp1916
a(I6
S'punct'
p1917
I20
tp1918
aa(lp1919
(I1
g3
I1
tp1920
a(I1
S'det'
p1921
I0
tp1922
a(I1
S'punct'
p1923
I2
tp1924
a(I4
S'compound'
p1925
I3
tp1926
a(I5
S'nsubj'
p1927
I4
tp1928
a(I1
S'dep'
p1929
I5
tp1930
a(I11
S'mark'
p1931
I6
tp1932
a(I8
S'amod'
p1933
I7
tp1934
a(I8
S'amod'
p1935
I7
tp1936
a(I11
S'nsubj'
p1937
I8
tp1938
a(I11
S'cop'
p1939
I9
tp1940
a(I11
S'case'
p1941
I10
tp1942
a(I5
S'ccomp'
p1943
I11
tp1944
a(I1
S'punct'
p1945
I12
tp1946
aa(lp1947
(I3
g3
I3
tp1948
a(I1
S'det'
p1949
I0
tp1950
a(I3
S'nsubjpass'
p1951
I1
tp1952
a(I3
S'auxpass'
p1953
I2
tp1954
a(I5
S'mark'
p1955
I4
tp1956
a(I3
S'xcomp'
p1957
I5
tp1958
a(I5
S'dobj'
p1959
I6
tp1960
a(I8
S'mark'
p1961
I7
tp1962
a(I5
S'xcomp'
p1963
I8
tp1964
a(I10
S'det'
p1965
I9
tp1966
a(I8
S'dobj'
p1967
I10
tp1968
a(I3
S'punct'
p1969
I11
tp1970
aa(lp1971
(I3
g3
I3
tp1972
a(I1
S'compound'
p1973
I0
tp1974
a(I3
S'nsubj'
p1975
I1
tp1976
a(I3
S'aux'
p1977
I2
tp1978
a(I6
S'det'
p1979
I4
tp1980
a(I6
S'amod'
p1981
I5
tp1982
a(I3
S'xcomp'
p1983
I6
tp1984
a(I9
S'case'
p1985
I7
tp1986
a(I9
S'compound'
p1987
I8
tp1988
a(I6
S'nmod:for'
p1989
I9
tp1990
a(I3
S'punct'
p1991
I10
tp1992
aa(lp1993
(I2
g3
I2
tp1994
a(I2
S'nsubj'
p1995
I0
tp1996
a(I2
S'cop'
p1997
I1
tp1998
a(I4
S'case'
p1999
I3
tp2000
a(I2
S'nmod:of'
p2001
I4
tp2002
a(I4
S'advmod'
p2003
I5
tp2004
a(I8
S'compound'
p2005
I6
tp2006
a(I8
S'amod'
p2007
I7
tp2008
a(I4
S'dep'
p2009
I8
tp2010
a(I11
S'case'
p2011
I9
tp2012
a(I11
S'det'
p2013
I10
tp2014
a(I8
S'nmod:in'
p2015
I11
tp2016
a(I2
S'punct'
p2017
I12
tp2018
aa(lp2019
(I3
g3
I3
tp2020
a(I2
S'amod'
p2021
I0
tp2022
a(I2
S'amod'
p2023
I0
tp2024
a(I2
S'compound'
p2025
I1
tp2026
a(I3
S'nsubj'
p2027
I2
tp2028
a(I7
S'amod'
p2029
I4
tp2030
a(I7
S'compound'
p2031
I5
tp2032
a(I7
S'compound'
p2033
I6
tp2034
a(I3
S'dobj'
p2035
I7
tp2036
a(I8
S'amod'
p2037
I8
tp2038
a(I7
S'nmod:tmod'
p2039
I8
tp2040
a(I11
S'case'
p2041
I9
tp2042
a(I11
S'det'
p2043
I10
tp2044
a(I7
S'nmod:in'
p2045
I11
tp2046
a(I14
S'case'
p2047
I12
tp2048
a(I14
S'compound'
p2049
I13
tp2050
a(I11
S'nmod:against'
p2051
I14
tp2052
a(I14
S'acl'
p2053
I15
tp2054
a(I17
S'mark'
p2055
I16
tp2056
a(I15
S'advcl'
p2057
I17
tp2058
a(I21
S'nmod:poss'
p2059
I18
tp2060
a(I18
S'case'
p2061
I19
tp2062
a(I21
S'compound'
p2063
I20
tp2064
a(I17
S'dobj'
p2065
I21
tp2066
a(I23
S'case'
p2067
I22
tp2068
a(I3
S'nmod:in'
p2069
I23
tp2070
a(I3
S'punct'
p2071
I24
tp2072
aa(lp2073
(I4
g3
I4
tp2074
a(I2
S'det'
p2075
I0
tp2076
a(I2
S'amod'
p2077
I1
tp2078
a(I4
S'nsubjpass'
p2079
I2
tp2080
a(I4
S'auxpass'
p2081
I3
tp2082
a(I6
S'case'
p2083
I5
tp2084
a(I4
S'nmod:to'
p2085
I6
tp2086
a(I8
S'case'
p2087
I7
tp2088
a(I6
S'nmod:against'
p2089
I8
tp2090
a(I4
S'punct'
p2091
I9
tp2092
aa(lp2093
(I2
g3
I2
tp2094
a(I1
S'det'
p2095
I0
tp2096
a(I2
S'nsubj'
p2097
I1
tp2098
a(I5
S'det'
p2099
I3
tp2100
a(I5
S'amod'
p2101
I4
tp2102
a(I7
S'nsubj'
p2103
I5
tp2104
a(I7
S'aux'
p2105
I6
tp2106
a(I2
S'ccomp'
p2107
I7
tp2108
a(I11
S'det'
p2109
I8
tp2110
a(I11
S'compound'
p2111
I9
tp2112
a(I11
S'compound'
p2113
I10
tp2114
a(I7
S'dobj'
p2115
I11
tp2116
a(I7
S'cc'
p2117
I12
tp2118
a(I17
S'mark'
p2119
I13
tp2120
a(I17
S'nsubj'
p2121
I14
tp2122
a(I17
S'cop'
p2123
I15
tp2124
a(I17
S'amod'
p2125
I16
tp2126
a(I7
S'conj:and'
p2127
I17
tp2128
a(I2
S'punct'
p2129
I18
tp2130
aa(lp2131
(I1
g3
I1
tp2132
a(I1
S'nsubj'
p2133
I0
tp2134
a(I4
S'case'
p2135
I2
tp2136
a(I4
S'det'
p2137
I3
tp2138
a(I1
S'nmod:on'
p2139
I4
tp2140
a(I7
S'case'
p2141
I5
tp2142
a(I7
S'nummod'
p2143
I6
tp2144
a(I4
S'nmod:of'
p2145
I7
tp2146
a(I1
S'punct'
p2147
I8
tp2148
aa(lp2149
(I1
g3
I1
tp2150
a(I1
S'nsubj'
p2151
I0
tp2152
a(I4
S'case'
p2153
I2
tp2154
a(I4
S'det'
p2155
I3
tp2156
a(I1
S'nmod:on'
p2157
I4
tp2158
a(I7
S'case'
p2159
I5
tp2160
a(I7
S'nummod'
p2161
I6
tp2162
a(I4
S'nmod:of'
p2163
I7
tp2164
a(I1
S'punct'
p2165
I8
tp2166
aa(lp2167
(I2
g3
I2
tp2168
a(I1
S'det'
p2169
I0
tp2170
a(I2
S'nsubj'
p2171
I1
tp2172
a(I5
S'det'
p2173
I3
tp2174
a(I5
S'amod'
p2175
I4
tp2176
a(I8
S'nsubj'
p2177
I5
tp2178
a(I8
S'aux'
p2179
I6
tp2180
a(I8
S'neg'
p2181
I7
tp2182
a(I2
S'ccomp'
p2183
I8
tp2184
a(I10
S'det'
p2185
I9
tp2186
a(I8
S'dobj'
p2187
I10
tp2188
a(I13
S'case'
p2189
I11
tp2190
a(I13
S'nmod:poss'
p2191
I12
tp2192
a(I8
S'nmod:for'
p2193
I13
tp2194
a(I15
S'mark'
p2195
I14
tp2196
a(I13
S'acl'
p2197
I15
tp2198
a(I15
S'dobj'
p2199
I16
tp2200
a(I16
S'cc'
p2201
I17
tp2202
a(I16
S'conj:and'
p2203
I18
tp2204
a(I2
S'punct'
p2205
I19
tp2206
aa(lp2207
(I2
g3
I2
tp2208
a(I1
S'det'
p2209
I0
tp2210
a(I2
S'nsubj'
p2211
I1
tp2212
a(I5
S'det'
p2213
I3
tp2214
a(I5
S'amod'
p2215
I4
tp2216
a(I8
S'nsubj'
p2217
I5
tp2218
a(I8
S'aux'
p2219
I6
tp2220
a(I8
S'neg'
p2221
I7
tp2222
a(I2
S'ccomp'
p2223
I8
tp2224
a(I10
S'det'
p2225
I9
tp2226
a(I8
S'dobj'
p2227
I10
tp2228
a(I13
S'case'
p2229
I11
tp2230
a(I13
S'nmod:poss'
p2231
I12
tp2232
a(I8
S'nmod:for'
p2233
I13
tp2234
a(I15
S'mark'
p2235
I14
tp2236
a(I13
S'acl'
p2237
I15
tp2238
a(I15
S'dobj'
p2239
I16
tp2240
a(I16
S'cc'
p2241
I17
tp2242
a(I16
S'conj:and'
p2243
I18
tp2244
a(I2
S'punct'
p2245
I19
tp2246
aa(lp2247
(I3
g3
I3
tp2248
a(I2
S'det'
p2249
I0
tp2250
a(I2
S'compound'
p2251
I1
tp2252
a(I3
S'nsubj'
p2253
I2
tp2254
a(I5
S'mark'
p2255
I4
tp2256
a(I3
S'xcomp'
p2257
I5
tp2258
a(I7
S'det'
p2259
I6
tp2260
a(I5
S'dobj'
p2261
I7
tp2262
a(I10
S'case'
p2263
I8
tp2264
a(I10
S'compound'
p2265
I9
tp2266
a(I7
S'nmod:of'
p2267
I10
tp2268
a(I10
S'cc'
p2269
I11
tp2270
a(I10
S'conj:and'
p2271
I12
tp2272
a(I17
S'case'
p2273
I13
tp2274
a(I15
S'det'
p2275
I14
tp2276
a(I17
S'nmod:poss'
p2277
I15
tp2278
a(I15
S'case'
p2279
I16
tp2280
a(I10
S'nmod:against'
p2281
I17
tp2282
a(I19
S'case'
p2283
I18
tp2284
a(I17
S'nmod:of'
p2285
I19
tp2286
a(I19
S'cc'
p2287
I20
tp2288
a(I19
S'conj:and'
p2289
I21
tp2290
a(I25
S'case'
p2291
I22
tp2292
a(I23
S'compound'
p2293
I23
tp2294
a(I25
S'nmod:poss'
p2295
I23
tp2296
a(I23
S'case'
p2297
I24
tp2298
a(I17
S'nmod:of'
p2299
I25
tp2300
a(I3
S'punct'
p2301
I26
tp2302
aa(lp2303
(I2
g3
I2
tp2304
a(I1
S'det'
p2305
I0
tp2306
a(I2
S'nsubj'
p2307
I1
tp2308
a(I5
S'nsubj'
p2309
I3
tp2310
a(I5
S'aux'
p2311
I4
tp2312
a(I2
S'ccomp'
p2313
I5
tp2314
a(I7
S'det'
p2315
I6
tp2316
a(I5
S'dobj'
p2317
I7
tp2318
a(I8
S'case'
p2319
I8
tp2320
a(I5
S'nmod:next'
p2321
I8
tp2322
a(I15
S'case'
p2323
I9
tp2324
a(I11
S'advmod'
p2325
I10
tp2326
a(I15
S'nummod'
p2327
I11
tp2328
a(I15
S'compound'
p2329
I12
tp2330
a(I15
S'compound'
p2331
I13
tp2332
a(I15
S'compound'
p2333
I14
tp2334
a(I8
S'nmod:of'
p2335
I15
tp2336
a(I19
S'case'
p2337
I16
tp2338
a(I19
S'det'
p2339
I17
tp2340
a(I19
S'compound'
p2341
I18
tp2342
a(I15
S'nmod:in'
p2343
I19
tp2344
a(I5
S'cc'
p2345
I20
tp2346
a(I5
S'conj:and'
p2347
I21
tp2348
a(I23
S'det'
p2349
I22
tp2350
a(I21
S'dobj'
p2351
I23
tp2352
a(I25
S'mark'
p2353
I24
tp2354
a(I23
S'acl'
p2355
I25
tp2356
a(I27
S'det'
p2357
I26
tp2358
a(I25
S'dobj'
p2359
I27
tp2360
a(I2
S'punct'
p2361
I28
tp2362
aa(lp2363
(I6
g3
I6
tp2364
a(I1
S'compound'
p2365
I0
tp2366
a(I6
S'nsubj'
p2367
I1
tp2368
a(I3
S'case'
p2369
I2
tp2370
a(I3
S'compound'
p2371
I3
tp2372
a(I3
S'compound'
p2373
I3
tp2374
a(I1
S'nmod:at'
p2375
I3
tp2376
a(I5
S'det'
p2377
I4
tp2378
a(I3
S'dep'
p2379
I5
tp2380
a(I3
S'punct'
p2381
I5
tp2382
a(I3
S'dep'
p2383
I5
tp2384
a(I9
S'nsubj'
p2385
I7
tp2386
a(I9
S'aux'
p2387
I8
tp2388
a(I6
S'ccomp'
p2389
I9
tp2390
a(I11
S'advmod'
p2391
I10
tp2392
a(I13
S'nummod'
p2393
I11
tp2394
a(I13
S'amod'
p2395
I12
tp2396
a(I9
S'dobj'
p2397
I13
tp2398
a(I16
S'case'
p2399
I14
tp2400
a(I16
S'amod'
p2401
I15
tp2402
a(I13
S'nmod:of'
p2403
I16
tp2404
a(I19
S'case'
p2405
I17
tp2406
a(I19
S'compound'
p2407
I18
tp2408
a(I9
S'nmod:with'
p2409
I19
tp2410
a(I6
S'punct'
p2411
I20
tp2412
aa(lp2413
(I1
g3
I1
tp2414
a(I1
S'amod'
p2415
I0
tp2416
a(I1
S'punct'
p2417
I2
tp2418
a(I1
S'dep'
p2419
I3
tp2420
a(I5
S'compound'
p2421
I4
tp2422
a(I5
S'compound'
p2423
I5
tp2424
a(I11
S'nsubj'
p2425
I5
tp2426
a(I5
S'cc'
p2427
I6
tp2428
a(I10
S'amod'
p2429
I7
tp2430
a(I10
S'compound'
p2431
I8
tp2432
a(I10
S'compound'
p2433
I9
tp2434
a(I5
S'conj:and'
p2435
I10
tp2436
a(I3
S'ccomp'
p2437
I11
tp2438
a(I13
S'mark'
p2439
I12
tp2440
a(I11
S'xcomp'
p2441
I13
tp2442
a(I16
S'det'
p2443
I14
tp2444
a(I15
S'amod'
p2445
I15
tp2446
a(I16
S'amod'
p2447
I15
tp2448
a(I13
S'dobj'
p2449
I16
tp2450
a(I18
S'mark'
p2451
I17
tp2452
a(I16
S'acl'
p2453
I18
tp2454
a(I18
S'dobj'
p2455
I19
tp2456
a(I1
S'punct'
p2457
I20
tp2458
aa(lp2459
(I3
g3
I3
tp2460
a(I2
S'compound'
p2461
I0
tp2462
a(I2
S'compound'
p2463
I1
tp2464
a(I2
S'compound'
p2465
I2
tp2466
a(I3
S'nsubj'
p2467
I2
tp2468
a(I5
S'det'
p2469
I4
tp2470
a(I3
S'dobj'
p2471
I5
tp2472
a(I6
S'amod'
p2473
I6
tp2474
a(I3
S'nmod:tmod'
p2475
I6
tp2476
a(I10
S'case'
p2477
I7
tp2478
a(I8
S'compound'
p2479
I8
tp2480
a(I10
S'nmod:poss'
p2481
I8
tp2482
a(I8
S'case'
p2483
I9
tp2484
a(I10
S'compound'
p2485
I10
tp2486
a(I3
S'nmod:to'
p2487
I10
tp2488
a(I3
S'xcomp'
p2489
I11
tp2490
a(I11
S'dobj'
p2491
I12
tp2492
a(I12
S'acl'
p2493
I13
tp2494
a(I18
S'case'
p2495
I14
tp2496
a(I18
S'amod'
p2497
I15
tp2498
a(I15
S'cc'
p2499
I16
tp2500
a(I15
S'conj:and'
p2501
I17
tp2502
a(I13
S'nmod:for'
p2503
I18
tp2504
a(I20
S'case'
p2505
I19
tp2506
a(I18
S'nmod:against'
p2507
I20
tp2508
a(I22
S'case'
p2509
I21
tp2510
a(I13
S'nmod:to'
p2511
I22
tp2512
a(I3
S'punct'
p2513
I23
tp2514
aa(lp2515
(I5
g3
I5
tp2516
a(I5
S'nsubj'
p2517
I0
tp2518
a(I5
S'cop'
p2519
I1
tp2520
a(I5
S'advmod'
p2521
I2
tp2522
a(I5
S'case'
p2523
I3
tp2524
a(I5
S'det'
p2525
I4
tp2526
a(I5
S'compound'
p2527
I5
tp2528
a(I7
S'nsubj'
p2529
I6
tp2530
a(I5
S'acl:relcl'
p2531
I7
tp2532
a(I7
S'nmod:tmod'
p2533
I8
tp2534
a(I8
S'nummod'
p2535
I8
tp2536
a(I8
S'punct'
p2537
I8
tp2538
a(I8
S'nummod'
p2539
I8
tp2540
a(I5
S'punct'
p2541
I9
tp2542
aa(lp2543
(I0
g3
I0
tp2544
a(I3
S'case'
p2545
I1
tp2546
a(I3
S'det'
p2547
I2
tp2548
a(I3
S'amod'
p2549
I3
tp2550
a(I3
S'compound'
p2551
I3
tp2552
a(I0
S'nmod:of'
p2553
I3
tp2554
a(I0
S'cc'
p2555
I4
tp2556
a(I8
S'det'
p2557
I5
tp2558
a(I8
S'compound'
p2559
I6
tp2560
a(I8
S'compound'
p2561
I7
tp2562
a(I0
S'conj:and'
p2563
I8
tp2564
a(I9
S'compound'
p2565
I9
tp2566
a(I8
S'dep'
p2567
I9
tp2568
a(I0
S'punct'
p2569
I9
tp2570
a(I10
S'nsubj'
p2571
I9
tp2572
a(I0
S'parataxis'
p2573
I10
tp2574
a(I14
S'nsubj'
p2575
I11
tp2576
a(I14
S'aux'
p2577
I12
tp2578
a(I14
S'neg'
p2579
I13
tp2580
a(I10
S'ccomp'
p2581
I14
tp2582
a(I18
S'case'
p2583
I15
tp2584
a(I18
S'det'
p2585
I16
tp2586
a(I18
S'compound'
p2587
I17
tp2588
a(I14
S'nmod:in'
p2589
I18
tp2590
a(I22
S'case'
p2591
I19
tp2592
a(I22
S'det'
p2593
I20
tp2594
a(I22
S'amod'
p2595
I21
tp2596
a(I18
S'nmod:of'
p2597
I22
tp2598
a(I0
S'punct'
p2599
I23
tp2600
aa(lp2601
(I2
g3
I2
tp2602
a(I0
S'amod'
p2603
I0
tp2604
a(I1
S'amod'
p2605
I0
tp2606
a(I2
S'nsubj'
p2607
I1
tp2608
a(I4
S'amod'
p2609
I3
tp2610
a(I9
S'nsubjpass'
p2611
I4
tp2612
a(I4
S'acl'
p2613
I5
tp2614
a(I7
S'case'
p2615
I6
tp2616
a(I5
S'nmod:for'
p2617
I7
tp2618
a(I9
S'auxpass'
p2619
I8
tp2620
a(I2
S'ccomp'
p2621
I9
tp2622
a(I9
S'advmod'
p2623
I10
tp2624
a(I12
S'case'
p2625
I11
tp2626
a(I9
S'nmod:agent'
p2627
I12
tp2628
a(I2
S'punct'
p2629
I13
tp2630
aa(lp2631
(I1
g3
I1
tp2632
a(I1
S'nsubj'
p2633
I0
tp2634
a(I3
S'amod'
p2635
I2
tp2636
a(I9
S'nsubjpass'
p2637
I3
tp2638
a(I6
S'case'
p2639
I4
tp2640
a(I6
S'det'
p2641
I5
tp2642
a(I3
S'nmod:in'
p2643
I6
tp2644
a(I9
S'auxpass'
p2645
I7
tp2646
a(I9
S'neg'
p2647
I8
tp2648
a(I1
S'ccomp'
p2649
I9
tp2650
a(I1
S'punct'
p2651
I10
tp2652
aa(lp2653
(I1
g3
I1
tp2654
a(I1
S'nsubj'
p2655
I0
tp2656
a(I1
S'dobj'
p2657
I2
tp2658
a(I1
S'punct'
p2659
I3
tp2660
a(I1
S'conj:and'
p2661
I4
tp2662
a(I4
S'dobj'
p2663
I5
tp2664
a(I8
S'case'
p2665
I6
tp2666
a(I8
S'det'
p2667
I7
tp2668
a(I4
S'nmod:by'
p2669
I8
tp2670
a(I1
S'cc'
p2671
I9
tp2672
a(I1
S'conj:and'
p2673
I10
tp2674
a(I10
S'dobj'
p2675
I11
tp2676
a(I13
S'case'
p2677
I12
tp2678
a(I10
S'nmod:in'
p2679
I13
tp2680
a(I16
S'case'
p2681
I14
tp2682
a(I16
S'amod'
p2683
I15
tp2684
a(I10
S'nmod:with'
p2685
I16
tp2686
a(I18
S'mark'
p2687
I17
tp2688
a(I10
S'advcl'
p2689
I18
tp2690
a(I20
S'det'
p2691
I19
tp2692
a(I21
S'nmod:npmod'
p2693
I20
tp2694
a(I22
S'advmod'
p2695
I21
tp2696
a(I18
S'dobj'
p2697
I22
tp2698
a(I1
S'punct'
p2699
I23
tp2700
aa(lp2701
(I3
g3
I3
tp2702
a(I1
S'compound'
p2703
I0
tp2704
a(I3
S'nsubjpass'
p2705
I1
tp2706
a(I3
S'auxpass'
p2707
I2
tp2708
a(I5
S'mark'
p2709
I4
tp2710
a(I3
S'xcomp'
p2711
I5
tp2712
a(I5
S'cc'
p2713
I6
tp2714
a(I5
S'conj:or'
p2715
I7
tp2716
a(I10
S'case'
p2717
I8
tp2718
a(I10
S'det'
p2719
I9
tp2720
a(I5
S'nmod:into'
p2721
I10
tp2722
a(I13
S'advmod'
p2723
I11
tp2724
a(I13
S'nsubj'
p2725
I12
tp2726
a(I5
S'advcl'
p2727
I13
tp2728
a(I16
S'det'
p2729
I14
tp2730
a(I16
S'nummod'
p2731
I15
tp2732
a(I13
S'xcomp'
p2733
I16
tp2734
a(I3
S'punct'
p2735
I17
tp2736
aa(lp2737
(I4
g3
I4
tp2738
a(I2
S'neg'
p2739
I0
tp2740
a(I2
S'amod'
p2741
I1
tp2742
a(I4
S'nsubjpass'
p2743
I2
tp2744
a(I4
S'auxpass'
p2745
I3
tp2746
a(I7
S'case'
p2747
I5
tp2748
a(I7
S'det'
p2749
I6
tp2750
a(I7
S'compound'
p2751
I7
tp2752
a(I4
S'nmod:for'
p2753
I7
tp2754
a(I4
S'punct'
p2755
I8
tp2756
aa(lp2757
(I2
g3
I2
tp2758
a(I1
S'det'
p2759
I0
tp2760
a(I2
S'nsubj'
p2761
I1
tp2762
a(I4
S'det'
p2763
I3
tp2764
a(I7
S'nsubj'
p2765
I4
tp2766
a(I7
S'aux'
p2767
I5
tp2768
a(I7
S'advmod'
p2769
I6
tp2770
a(I2
S'ccomp'
p2771
I7
tp2772
a(I9
S'case'
p2773
I8
tp2774
a(I7
S'nmod:in'
p2775
I9
tp2776
a(I2
S'punct'
p2777
I10
tp2778
aa(lp2779
(I3
g3
I3
tp2780
a(I2
S'det'
p2781
I0
tp2782
a(I2
S'amod'
p2783
I1
tp2784
a(I3
S'nsubj'
p2785
I2
tp2786
a(I9
S'mark'
p2787
I4
tp2788
a(I9
S'mark'
p2789
I5
tp2790
a(I6
S'compound'
p2791
I6
tp2792
a(I7
S'nummod'
p2793
I6
tp2794
a(I9
S'nsubjpass'
p2795
I7
tp2796
a(I9
S'auxpass'
p2797
I8
tp2798
a(I3
S'advcl'
p2799
I9
tp2800
a(I11
S'det'
p2801
I10
tp2802
a(I9
S'nmod:tmod'
p2803
I11
tp2804
a(I13
S'case'
p2805
I12
tp2806
a(I9
S'nmod:for'
p2807
I13
tp2808
a(I15
S'case'
p2809
I14
tp2810
a(I15
S'compound'
p2811
I15
tp2812
a(I13
S'nmod:in'
p2813
I15
tp2814
a(I15
S'cc'
p2815
I16
tp2816
a(I18
S'nummod'
p2817
I17
tp2818
a(I15
S'conj:and'
p2819
I18
tp2820
a(I20
S'case'
p2821
I19
tp2822
a(I15
S'nmod:of'
p2823
I20
tp2824
a(I15
S'amod'
p2825
I21
tp2826
a(I21
S'nmod:tmod'
p2827
I22
tp2828
a(I21
S'cc'
p2829
I23
tp2830
a(I21
S'advmod'
p2831
I24
tp2832
a(I9
S'cc'
p2833
I25
tp2834
a(I27
S'nummod'
p2835
I26
tp2836
a(I32
S'nsubj'
p2837
I27
tp2838
a(I30
S'case'
p2839
I28
tp2840
a(I30
S'amod'
p2841
I29
tp2842
a(I27
S'nmod:of'
p2843
I30
tp2844
a(I32
S'aux'
p2845
I31
tp2846
a(I9
S'conj:and'
p2847
I32
tp2848
a(I34
S'compound'
p2849
I33
tp2850
a(I32
S'dobj'
p2851
I34
tp2852
a(I3
S'punct'
p2853
I35
tp2854
aa(lp2855
(I3
g3
I3
tp2856
a(I2
S'det'
p2857
I0
tp2858
a(I2
S'amod'
p2859
I1
tp2860
a(I3
S'nsubj'
p2861
I2
tp2862
a(I9
S'mark'
p2863
I4
tp2864
a(I9
S'mark'
p2865
I5
tp2866
a(I6
S'compound'
p2867
I6
tp2868
a(I7
S'nummod'
p2869
I6
tp2870
a(I9
S'nsubjpass'
p2871
I7
tp2872
a(I9
S'auxpass'
p2873
I8
tp2874
a(I3
S'advcl'
p2875
I9
tp2876
a(I11
S'det'
p2877
I10
tp2878
a(I9
S'nmod:tmod'
p2879
I11
tp2880
a(I13
S'case'
p2881
I12
tp2882
a(I9
S'nmod:for'
p2883
I13
tp2884
a(I15
S'case'
p2885
I14
tp2886
a(I15
S'compound'
p2887
I15
tp2888
a(I13
S'nmod:in'
p2889
I15
tp2890
a(I15
S'cc'
p2891
I16
tp2892
a(I18
S'nummod'
p2893
I17
tp2894
a(I15
S'conj:and'
p2895
I18
tp2896
a(I20
S'case'
p2897
I19
tp2898
a(I15
S'nmod:of'
p2899
I20
tp2900
a(I15
S'amod'
p2901
I21
tp2902
a(I21
S'nmod:tmod'
p2903
I22
tp2904
a(I21
S'cc'
p2905
I23
tp2906
a(I21
S'advmod'
p2907
I24
tp2908
a(I9
S'cc'
p2909
I25
tp2910
a(I27
S'nummod'
p2911
I26
tp2912
a(I32
S'nsubj'
p2913
I27
tp2914
a(I30
S'case'
p2915
I28
tp2916
a(I30
S'amod'
p2917
I29
tp2918
a(I27
S'nmod:of'
p2919
I30
tp2920
a(I32
S'aux'
p2921
I31
tp2922
a(I9
S'conj:and'
p2923
I32
tp2924
a(I34
S'compound'
p2925
I33
tp2926
a(I32
S'dobj'
p2927
I34
tp2928
a(I3
S'punct'
p2929
I35
tp2930
aa(lp2931
(I0
g3
I0
tp2932
aa(lp2933
(I0
g3
I0
tp2934
a(I3
S'case'
p2935
I1
tp2936
a(I3
S'compound'
p2937
I2
tp2938
a(I0
S'nmod:('
p2939
I3
tp2940
a(I0
S'punct'
p2941
I4
tp2942
a(I6
S'compound'
p2943
I5
tp2944
a(I0
S'dep'
p2945
I6
tp2946
a(I8
S'case'
p2947
I7
tp2948
a(I6
S'nmod:in'
p2949
I8
tp2950
aa(lp2951
(I0
g3
I0
tp2952
a(I0
S'punct'
p2953
I1
tp2954
a(I0
S'dep'
p2955
I2
tp2956
a(I2
S'punct'
p2957
I3
tp2958
a(I2
S'dep'
p2959
I4
tp2960
a(I2
S'punct'
p2961
I5
tp2962
a(I2
S'dep'
p2963
I6
tp2964
a(I6
S'cc'
p2965
I7
tp2966
a(I6
S'conj:and'
p2967
I8
tp2968
a(I2
S'punct'
p2969
I9
tp2970
a(I2
S'dep'
p2971
I10
tp2972
a(I10
S'punct'
p2973
I11
tp2974
a(I10
S'dep'
p2975
I12
tp2976
aa(lp2977
(I2
g3
I2
tp2978
a(I1
S'amod'
p2979
I0
tp2980
a(I2
S'nsubj'
p2981
I1
tp2982
a(I4
S'case'
p2983
I3
tp2984
a(I2
S'nmod:in'
p2985
I4
tp2986
a(I6
S'case'
p2987
I5
tp2988
a(I2
S'nmod:despite'
p2989
I6
tp2990
a(I6
S'amod'
p2991
I7
tp2992
a(I10
S'case'
p2993
I8
tp2994
a(I10
S'amod'
p2995
I9
tp2996
a(I6
S'nmod:of'
p2997
I10
tp2998
a(I2
S'punct'
p2999
I11
tp3000
aa(lp3001
(I2
g3
I2
tp3002
a(I1
S'amod'
p3003
I0
tp3004
a(I2
S'nsubj'
p3005
I1
tp3006
a(I4
S'case'
p3007
I3
tp3008
a(I2
S'nmod:in'
p3009
I4
tp3010
a(I6
S'case'
p3011
I5
tp3012
a(I2
S'nmod:despite'
p3013
I6
tp3014
a(I6
S'acl'
p3015
I7
tp3016
a(I10
S'case'
p3017
I8
tp3018
a(I10
S'amod'
p3019
I9
tp3020
a(I7
S'nmod:of'
p3021
I10
tp3022
a(I14
S'case'
p3023
I11
tp3024
a(I14
S'det'
p3025
I12
tp3026
a(I14
S'compound'
p3027
I13
tp3028
a(I7
S'nmod:by'
p3029
I14
tp3030
a(I2
S'punct'
p3031
I15
tp3032
aa(lp3033
(I12
g3
I12
tp3034
a(I12
S'nsubj'
p3035
I0
tp3036
a(I0
S'cc'
p3037
I1
tp3038
a(I0
S'conj:and'
p3039
I2
tp3040
a(I0
S'acl'
p3041
I3
tp3042
a(I5
S'det'
p3043
I4
tp3044
a(I3
S'dobj'
p3045
I5
tp3046
a(I9
S'case'
p3047
I6
tp3048
a(I9
S'amod'
p3049
I7
tp3050
a(I9
S'amod'
p3051
I8
tp3052
a(I5
S'nmod:of'
p3053
I9
tp3054
a(I11
S'case'
p3055
I10
tp3056
a(I9
S'nmod:in'
p3057
I11
tp3058
a(I14
S'mark'
p3059
I13
tp3060
a(I12
S'xcomp'
p3061
I14
tp3062
a(I16
S'det'
p3063
I15
tp3064
a(I14
S'dobj'
p3065
I16
tp3066
a(I18
S'case'
p3067
I17
tp3068
a(I16
S'nmod:in'
p3069
I18
tp3070
a(I25
S'case'
p3071
I19
tp3072
a(I23
S'det'
p3073
I20
tp3074
a(I23
S'amod'
p3075
I21
tp3076
a(I23
S'amod'
p3077
I22
tp3078
a(I25
S'nmod:poss'
p3079
I23
tp3080
a(I23
S'case'
p3081
I24
tp3082
a(I14
S'nmod:despite'
p3083
I25
tp3084
a(I30
S'case'
p3085
I26
tp3086
a(I30
S'det'
p3087
I27
tp3088
a(I30
S'amod'
p3089
I28
tp3090
a(I30
S'compound'
p3091
I29
tp3092
a(I14
S'nmod:at'
p3093
I30
tp3094
a(I33
S'case'
p3095
I31
tp3096
a(I33
S'amod'
p3097
I32
tp3098
a(I30
S'nmod:of'
p3099
I33
tp3100
a(I12
S'punct'
p3101
I34
tp3102
aa(lp3103
(I7
g3
I7
tp3104
a(I1
S'case'
p3105
I0
tp3106
a(I7
S'nmod:around'
p3107
I1
tp3108
a(I4
S'amod'
p3109
I2
tp3110
a(I4
S'amod'
p3111
I3
tp3112
a(I7
S'nsubjpass'
p3113
I4
tp3114
a(I7
S'aux'
p3115
I5
tp3116
a(I7
S'auxpass'
p3117
I6
tp3118
a(I9
S'case'
p3119
I8
tp3120
a(I7
S'nmod:since'
p3121
I9
tp3122
a(I12
S'case'
p3123
I10
tp3124
a(I12
S'amod'
p3125
I11
tp3126
a(I7
S'nmod:under'
p3127
I12
tp3128
a(I15
S'case'
p3129
I13
tp3130
a(I15
S'amod'
p3131
I14
tp3132
a(I12
S'nmod:against'
p3133
I15
tp3134
a(I12
S'cc'
p3135
I16
tp3136
a(I18
S'amod'
p3137
I17
tp3138
a(I12
S'conj:and'
p3139
I18
tp3140
a(I18
S'acl'
p3141
I19
tp3142
a(I22
S'case'
p3143
I20
tp3144
a(I22
S'compound'
p3145
I21
tp3146
a(I22
S'compound'
p3147
I22
tp3148
a(I19
S'nmod:by'
p3149
I22
tp3150
a(I24
S'case'
p3151
I23
tp3152
a(I24
S'det'
p3153
I24
tp3154
a(I22
S'nmod:during'
p3155
I24
tp3156
a(I7
S'punct'
p3157
I25
tp3158
aa(lp3159
(I7
g3
I7
tp3160
a(I2
S'det'
p3161
I0
tp3162
a(I2
S'amod'
p3163
I1
tp3164
a(I7
S'nsubj'
p3165
I2
tp3166
a(I4
S'case'
p3167
I3
tp3168
a(I2
S'nmod:against'
p3169
I4
tp3170
a(I4
S'cc'
p3171
I5
tp3172
a(I4
S'conj:and'
p3173
I6
tp3174
a(I10
S'mark'
p3175
I8
tp3176
a(I9
S'compound'
p3177
I9
tp3178
a(I10
S'nsubj'
p3179
I9
tp3180
a(I7
S'advcl'
p3181
I10
tp3182
a(I13
S'nummod'
p3183
I11
tp3184
a(I13
S'amod'
p3185
I12
tp3186
a(I10
S'dobj'
p3187
I13
tp3188
a(I7
S'punct'
p3189
I14
tp3190
aa(lp3191
(I5
g3
I5
tp3192
a(I4
S'det'
p3193
I0
tp3194
a(I4
S'amod'
p3195
I1
tp3196
a(I1
S'dep'
p3197
I2
tp3198
a(I4
S'amod'
p3199
I3
tp3200
a(I5
S'nsubj'
p3201
I4
tp3202
a(I10
S'det'
p3203
I6
tp3204
a(I10
S'nummod'
p3205
I7
tp3206
a(I10
S'compound'
p3207
I8
tp3208
a(I10
S'amod'
p3209
I9
tp3210
a(I5
S'dobj'
p3211
I10
tp3212
a(I10
S'acl'
p3213
I11
tp3214
a(I13
S'amod'
p3215
I12
tp3216
a(I11
S'dobj'
p3217
I13
tp3218
a(I15
S'case'
p3219
I14
tp3220
a(I13
S'nmod:in'
p3221
I15
tp3222
a(I20
S'dobj'
p3223
I16
tp3224
a(I19
S'det'
p3225
I17
tp3226
a(I19
S'amod'
p3227
I18
tp3228
a(I20
S'nsubj'
p3229
I19
tp3230
a(I13
S'acl:relcl'
p3231
I20
tp3232
a(I22
S'mark'
p3233
I21
tp3234
a(I20
S'advcl'
p3235
I22
tp3236
a(I26
S'det'
p3237
I23
tp3238
a(I26
S'amod'
p3239
I24
tp3240
a(I24
S'nmod:tmod'
p3241
I25
tp3242
a(I22
S'dobj'
p3243
I26
tp3244
a(I30
S'case'
p3245
I27
tp3246
a(I30
S'det'
p3247
I28
tp3248
a(I30
S'amod'
p3249
I29
tp3250
a(I26
S'nmod:on'
p3251
I30
tp3252
a(I5
S'punct'
p3253
I31
tp3254
aa(lp3255
(I3
g3
I3
tp3256
a(I1
S'amod'
p3257
I0
tp3258
a(I3
S'nsubj'
p3259
I1
tp3260
a(I3
S'aux'
p3261
I2
tp3262
a(I17
S'mark'
p3263
I4
tp3264
a(I6
S'neg'
p3265
I5
tp3266
a(I17
S'nsubjpass'
p3267
I6
tp3268
a(I6
S'cc'
p3269
I7
tp3270
a(I6
S'conj:or'
p3271
I8
tp3272
a(I11
S'case'
p3273
I9
tp3274
a(I11
S'det'
p3275
I10
tp3276
a(I6
S'nmod:from'
p3277
I11
tp3278
a(I6
S'acl'
p3279
I12
tp3280
a(I14
S'amod'
p3281
I13
tp3282
a(I12
S'dobj'
p3283
I14
tp3284
a(I17
S'aux'
p3285
I15
tp3286
a(I17
S'auxpass'
p3287
I16
tp3288
a(I3
S'ccomp'
p3289
I17
tp3290
a(I21
S'case'
p3291
I18
tp3292
a(I19
S'compound'
p3293
I19
tp3294
a(I21
S'nmod:poss'
p3295
I19
tp3296
a(I19
S'case'
p3297
I20
tp3298
a(I17
S'nmod:after'
p3299
I21
tp3300
a(I21
S'dep'
p3301
I22
tp3302
a(I26
S'det'
p3303
I23
tp3304
a(I26
S'nummod'
p3305
I24
tp3306
a(I26
S'amod'
p3307
I25
tp3308
a(I22
S'dobj'
p3309
I26
tp3310
a(I3
S'punct'
p3311
I27
tp3312
aa(lp3313
(I3
g3
I3
tp3314
a(I1
S'amod'
p3315
I0
tp3316
a(I3
S'nsubj'
p3317
I1
tp3318
a(I3
S'aux'
p3319
I2
tp3320
a(I17
S'mark'
p3321
I4
tp3322
a(I6
S'neg'
p3323
I5
tp3324
a(I17
S'nsubjpass'
p3325
I6
tp3326
a(I6
S'cc'
p3327
I7
tp3328
a(I6
S'conj:or'
p3329
I8
tp3330
a(I11
S'case'
p3331
I9
tp3332
a(I11
S'det'
p3333
I10
tp3334
a(I6
S'nmod:from'
p3335
I11
tp3336
a(I6
S'acl'
p3337
I12
tp3338
a(I14
S'amod'
p3339
I13
tp3340
a(I12
S'dobj'
p3341
I14
tp3342
a(I17
S'aux'
p3343
I15
tp3344
a(I17
S'auxpass'
p3345
I16
tp3346
a(I3
S'ccomp'
p3347
I17
tp3348
a(I21
S'case'
p3349
I18
tp3350
a(I19
S'compound'
p3351
I19
tp3352
a(I21
S'nmod:poss'
p3353
I19
tp3354
a(I19
S'case'
p3355
I20
tp3356
a(I17
S'nmod:after'
p3357
I21
tp3358
a(I21
S'dep'
p3359
I22
tp3360
a(I26
S'det'
p3361
I23
tp3362
a(I26
S'nummod'
p3363
I24
tp3364
a(I26
S'amod'
p3365
I25
tp3366
a(I22
S'dobj'
p3367
I26
tp3368
a(I3
S'punct'
p3369
I27
tp3370
aa(lp3371
(I9
g3
I9
tp3372
a(I0
S'compound'
p3373
I0
tp3374
a(I2
S'nmod:poss'
p3375
I0
tp3376
a(I0
S'case'
p3377
I1
tp3378
a(I9
S'nsubjpass'
p3379
I2
tp3380
a(I2
S'dep'
p3381
I3
tp3382
a(I7
S'det'
p3383
I4
tp3384
a(I7
S'nummod'
p3385
I5
tp3386
a(I7
S'amod'
p3387
I6
tp3388
a(I3
S'dobj'
p3389
I7
tp3390
a(I9
S'auxpass'
p3391
I8
tp3392
a(I12
S'case'
p3393
I10
tp3394
a(I12
S'det'
p3395
I11
tp3396
a(I12
S'compound'
p3397
I12
tp3398
a(I9
S'nmod:agent'
p3399
I12
tp3400
a(I9
S'punct'
p3401
I13
tp3402
aa(lp3403
(I1
g3
I1
tp3404
a(I0
S'compound'
p3405
I0
tp3406
a(I1
S'nsubj'
p3407
I0
tp3408
a(I32
S'mark'
p3409
I2
tp3410
a(I5
S'case'
p3411
I3
tp3412
a(I5
S'det'
p3413
I4
tp3414
a(I32
S'nmod:under'
p3415
I5
tp3416
a(I8
S'nsubjpass'
p3417
I6
tp3418
a(I8
S'auxpass'
p3419
I7
tp3420
a(I5
S'acl:relcl'
p3421
I8
tp3422
a(I8
S'advmod'
p3423
I9
tp3424
a(I11
S'case'
p3425
I10
tp3426
a(I9
S'nmod:at'
p3427
I11
tp3428
a(I13
S'case'
p3429
I12
tp3430
a(I8
S'nmod:on'
p3431
I13
tp3432
a(I15
S'det'
p3433
I14
tp3434
a(I32
S'nsubjpass'
p3435
I15
tp3436
a(I15
S'punct'
p3437
I16
tp3438
a(I15
S'appos'
p3439
I17
tp3440
a(I15
S'punct'
p3441
I18
tp3442
a(I20
S'amod'
p3443
I19
tp3444
a(I15
S'appos'
p3445
I20
tp3446
a(I15
S'punct'
p3447
I21
tp3448
a(I15
S'appos'
p3449
I22
tp3450
a(I15
S'punct'
p3451
I23
tp3452
a(I15
S'appos'
p3453
I24
tp3454
a(I27
S'case'
p3455
I25
tp3456
a(I27
S'det'
p3457
I26
tp3458
a(I24
S'nmod:of'
p3459
I27
tp3460
a(I15
S'acl'
p3461
I28
tp3462
a(I30
S'amod'
p3463
I29
tp3464
a(I28
S'dobj'
p3465
I30
tp3466
a(I32
S'auxpass'
p3467
I31
tp3468
a(I1
S'ccomp'
p3469
I32
tp3470
a(I32
S'cc'
p3471
I33
tp3472
a(I32
S'conj:and'
p3473
I34
tp3474
a(I1
S'punct'
p3475
I35
tp3476
aa(lp3477
(I5
g3
I5
tp3478
a(I0
S'compound'
p3479
I0
tp3480
a(I5
S'nsubj'
p3481
I0
tp3482
a(I5
S'cop'
p3483
I1
tp3484
a(I5
S'det'
p3485
I2
tp3486
a(I5
S'amod'
p3487
I3
tp3488
a(I5
S'amod'
p3489
I4
tp3490
a(I5
S'compound'
p3491
I4
tp3492
a(I5
S'punct'
p3493
I6
tp3494
aa(lp3495
(I1
g3
I1
tp3496
a(I0
S'compound'
p3497
I0
tp3498
a(I1
S'nsubj'
p3499
I0
tp3500
a(I9
S'mark'
p3501
I2
tp3502
a(I6
S'nmod:poss'
p3503
I3
tp3504
a(I3
S'case'
p3505
I4
tp3506
a(I6
S'amod'
p3507
I5
tp3508
a(I9
S'nsubjpass'
p3509
I6
tp3510
a(I9
S'aux'
p3511
I7
tp3512
a(I9
S'auxpass'
p3513
I8
tp3514
a(I1
S'ccomp'
p3515
I9
tp3516
a(I11
S'mark'
p3517
I10
tp3518
a(I9
S'xcomp'
p3519
I11
tp3520
a(I13
S'det'
p3521
I12
tp3522
a(I11
S'dobj'
p3523
I13
tp3524
a(I16
S'case'
p3525
I14
tp3526
a(I16
S'det'
p3527
I15
tp3528
a(I11
S'nmod:in'
p3529
I16
tp3530
a(I19
S'nsubjpass'
p3531
I17
tp3532
a(I19
S'auxpass'
p3533
I18
tp3534
a(I16
S'acl:relcl'
p3535
I19
tp3536
a(I21
S'case'
p3537
I20
tp3538
a(I19
S'nmod:on'
p3539
I21
tp3540
a(I9
S'cc'
p3541
I22
tp3542
a(I24
S'det'
p3543
I23
tp3544
a(I27
S'nmod:poss'
p3545
I24
tp3546
a(I24
S'case'
p3547
I25
tp3548
a(I27
S'amod'
p3549
I26
tp3550
a(I31
S'nsubj'
p3551
I27
tp3552
a(I31
S'cop'
p3553
I28
tp3554
a(I31
S'case'
p3555
I29
tp3556
a(I31
S'det'
p3557
I30
tp3558
a(I9
S'conj:and'
p3559
I31
tp3560
a(I33
S'mark'
p3561
I32
tp3562
a(I31
S'acl'
p3563
I33
tp3564
a(I33
S'dobj'
p3565
I34
tp3566
a(I1
S'punct'
p3567
I35
tp3568
aa(lp3569
(I4
g3
I4
tp3570
a(I3
S'compound'
p3571
I0
tp3572
a(I3
S'compound'
p3573
I1
tp3574
a(I3
S'compound'
p3575
I2
tp3576
a(I3
S'compound'
p3577
I3
tp3578
a(I4
S'nsubj'
p3579
I3
tp3580
a(I14
S'mark'
p3581
I5
tp3582
a(I7
S'det'
p3583
I6
tp3584
a(I14
S'nsubjpass'
p3585
I7
tp3586
a(I7
S'acl'
p3587
I8
tp3588
a(I10
S'amod'
p3589
I9
tp3590
a(I8
S'dobj'
p3591
I10
tp3592
a(I14
S'aux'
p3593
I11
tp3594
a(I14
S'neg'
p3595
I12
tp3596
a(I14
S'auxpass'
p3597
I13
tp3598
a(I4
S'ccomp'
p3599
I14
tp3600
a(I16
S'mark'
p3601
I15
tp3602
a(I14
S'xcomp'
p3603
I16
tp3604
a(I19
S'case'
p3605
I17
tp3606
a(I19
S'det'
p3607
I18
tp3608
a(I16
S'nmod:in'
p3609
I19
tp3610
a(I4
S'punct'
p3611
I20
tp3612
aa(lp3613
(I1
g3
I1
tp3614
a(I0
S'compound'
p3615
I0
tp3616
a(I1
S'nsubj'
p3617
I0
tp3618
a(I5
S'mark'
p3619
I2
tp3620
a(I5
S'nsubj'
p3621
I3
tp3622
a(I5
S'aux'
p3623
I4
tp3624
a(I1
S'ccomp'
p3625
I5
tp3626
a(I12
S'mark'
p3627
I6
tp3628
a(I9
S'det'
p3629
I7
tp3630
a(I9
S'amod'
p3631
I8
tp3632
a(I12
S'nsubj'
p3633
I9
tp3634
a(I12
S'cop'
p3635
I10
tp3636
a(I12
S'advmod'
p3637
I11
tp3638
a(I5
S'advcl'
p3639
I12
tp3640
a(I15
S'case'
p3641
I13
tp3642
a(I15
S'det'
p3643
I14
tp3644
a(I12
S'nmod:in'
p3645
I15
tp3646
a(I18
S'case'
p3647
I16
tp3648
a(I18
S'det'
p3649
I17
tp3650
a(I12
S'nmod:despite'
p3651
I18
tp3652
a(I1
S'punct'
p3653
I19
tp3654
aa(lp3655
(I1
g3
I1
tp3656
a(I0
S'compound'
p3657
I0
tp3658
a(I1
S'nsubj'
p3659
I0
tp3660
a(I5
S'mark'
p3661
I2
tp3662
a(I5
S'nsubj'
p3663
I3
tp3664
a(I5
S'aux'
p3665
I4
tp3666
a(I1
S'ccomp'
p3667
I5
tp3668
a(I12
S'mark'
p3669
I6
tp3670
a(I9
S'det'
p3671
I7
tp3672
a(I9
S'amod'
p3673
I8
tp3674
a(I12
S'nsubj'
p3675
I9
tp3676
a(I12
S'cop'
p3677
I10
tp3678
a(I12
S'advmod'
p3679
I11
tp3680
a(I5
S'advcl'
p3681
I12
tp3682
a(I15
S'case'
p3683
I13
tp3684
a(I15
S'det'
p3685
I14
tp3686
a(I12
S'nmod:in'
p3687
I15
tp3688
a(I18
S'case'
p3689
I16
tp3690
a(I18
S'det'
p3691
I17
tp3692
a(I12
S'nmod:despite'
p3693
I18
tp3694
a(I1
S'punct'
p3695
I19
tp3696
aa(lp3697
(I14
g3
I14
tp3698
a(I1
S'det'
p3699
I0
tp3700
a(I14
S'nsubj'
p3701
I1
tp3702
a(I5
S'punct'
p3703
I2
tp3704
a(I5
S'dep'
p3705
I3
tp3706
a(I5
S'punct'
p3707
I4
tp3708
a(I1
S'dep'
p3709
I5
tp3710
a(I1
S'cc'
p3711
I6
tp3712
a(I1
S'conj:and'
p3713
I7
tp3714
a(I11
S'punct'
p3715
I8
tp3716
a(I11
S'dep'
p3717
I9
tp3718
a(I11
S'punct'
p3719
I10
tp3720
a(I7
S'dep'
p3721
I11
tp3722
a(I14
S'aux'
p3723
I12
tp3724
a(I14
S'advmod'
p3725
I13
tp3726
a(I16
S'nmod:poss'
p3727
I15
tp3728
a(I14
S'dobj'
p3729
I16
tp3730
a(I19
S'case'
p3731
I17
tp3732
a(I19
S'det'
p3733
I18
tp3734
a(I14
S'nmod:through'
p3735
I19
tp3736
a(I21
S'case'
p3737
I20
tp3738
a(I19
S'nmod:of'
p3739
I21
tp3740
a(I21
S'cc'
p3741
I22
tp3742
a(I21
S'conj:and'
p3743
I23
tp3744
a(I25
S'advmod'
p3745
I24
tp3746
a(I21
S'amod'
p3747
I25
tp3748
a(I27
S'case'
p3749
I26
tp3750
a(I21
S'nmod:in'
p3751
I27
tp3752
a(I14
S'punct'
p3753
I28
tp3754
aa(lp3755
(I15
g3
I15
tp3756
a(I1
S'amod'
p3757
I0
tp3758
a(I15
S'nsubj'
p3759
I1
tp3760
a(I1
S'dep'
p3761
I2
tp3762
a(I4
S'case'
p3763
I3
tp3764
a(I2
S'nmod:to'
p3765
I4
tp3766
a(I2
S'cc'
p3767
I5
tp3768
a(I2
S'conj:and'
p3769
I6
tp3770
a(I11
S'case'
p3771
I7
tp3772
a(I11
S'det'
p3773
I8
tp3774
a(I11
S'compound'
p3775
I9
tp3776
a(I11
S'compound'
p3777
I9
tp3778
a(I11
S'compound'
p3779
I10
tp3780
a(I6
S'nmod:on'
p3781
I11
tp3782
a(I2
S'dobj'
p3783
I12
tp3784
a(I15
S'aux'
p3785
I13
tp3786
a(I15
S'advmod'
p3787
I14
tp3788
a(I17
S'amod'
p3789
I16
tp3790
a(I15
S'dobj'
p3791
I17
tp3792
a(I17
S'cc'
p3793
I18
tp3794
a(I17
S'conj:and'
p3795
I19
tp3796
a(I15
S'advcl'
p3797
I20
tp3798
a(I20
S'dobj'
p3799
I21
tp3800
a(I26
S'nsubj'
p3801
I22
tp3802
a(I26
S'cop'
p3803
I23
tp3804
a(I26
S'case'
p3805
I24
tp3806
a(I26
S'amod'
p3807
I25
tp3808
a(I21
S'acl:relcl'
p3809
I26
tp3810
a(I15
S'cc'
p3811
I27
tp3812
a(I15
S'conj:and'
p3813
I28
tp3814
a(I30
S'case'
p3815
I29
tp3816
a(I28
S'nmod:for'
p3817
I30
tp3818
a(I33
S'case'
p3819
I31
tp3820
a(I33
S'det'
p3821
I32
tp3822
a(I28
S'nmod:in'
p3823
I33
tp3824
a(I35
S'case'
p3825
I34
tp3826
a(I33
S'nmod:of'
p3827
I35
tp3828
a(I15
S'punct'
p3829
I36
tp3830
aa(lp3831
(I0
g3
I0
tp3832
a(I0
S'punct'
p3833
I1
tp3834
a(I3
S'amod'
p3835
I2
tp3836
a(I0
S'dep'
p3837
I3
tp3838
a(I5
S'auxpass'
p3839
I4
tp3840
a(I3
S'acl:relcl'
p3841
I5
tp3842
a(I7
S'case'
p3843
I6
tp3844
a(I5
S'nmod:from'
p3845
I7
tp3846
a(I10
S'case'
p3847
I8
tp3848
a(I10
S'advmod'
p3849
I9
tp3850
a(I5
S'nmod:agent'
p3851
I10
tp3852
a(I0
S'punct'
p3853
I11
tp3854
a(I13
S'compound'
p3855
I12
tp3856
a(I0
S'dep'
p3857
I13
tp3858
a(I13
S'dep'
p3859
I14
tp3860
a(I0
S'punct'
p3861
I15
tp3862
a(I18
S'compound'
p3863
I16
tp3864
a(I18
S'compound'
p3865
I17
tp3866
a(I0
S'dep'
p3867
I18
tp3868
a(I21
S'case'
p3869
I19
tp3870
a(I21
S'det'
p3871
I20
tp3872
a(I21
S'compound'
p3873
I21
tp3874
a(I18
S'nmod:of'
p3875
I21
tp3876
a(I21
S'cc'
p3877
I22
tp3878
a(I24
S'amod'
p3879
I23
tp3880
a(I21
S'conj:and'
p3881
I24
tp3882
a(I0
S'punct'
p3883
I25
tp3884
aa(lp3885
(I3
g3
I3
tp3886
a(I3
S'nsubj'
p3887
I0
tp3888
a(I3
S'aux'
p3889
I1
tp3890
a(I3
S'advmod'
p3891
I2
tp3892
a(I6
S'case'
p3893
I4
tp3894
a(I6
S'det'
p3895
I5
tp3896
a(I6
S'compound'
p3897
I6
tp3898
a(I3
S'nmod:with'
p3899
I6
tp3900
a(I9
S'case'
p3901
I7
tp3902
a(I9
S'amod'
p3903
I8
tp3904
a(I3
S'nmod:on'
p3905
I9
tp3906
a(I12
S'case'
p3907
I10
tp3908
a(I12
S'det'
p3909
I11
tp3910
a(I9
S'nmod:in'
p3911
I12
tp3912
a(I12
S'punct'
p3913
I13
tp3914
a(I15
S'amod'
p3915
I14
tp3916
a(I12
S'dep'
p3917
I15
tp3918
a(I3
S'punct'
p3919
I16
tp3920
aa(lp3921
(I11
g3
I11
tp3922
a(I1
S'amod'
p3923
I0
tp3924
a(I2
S'nsubj'
p3925
I1
tp3926
a(I11
S'dep'
p3927
I2
tp3928
a(I5
S'mark'
p3929
I3
tp3930
a(I5
S'nsubj'
p3931
I4
tp3932
a(I2
S'ccomp'
p3933
I5
tp3934
a(I8
S'case'
p3935
I6
tp3936
a(I8
S'amod'
p3937
I7
tp3938
a(I5
S'nmod:of'
p3939
I8
tp3940
a(I9
S'compound'
p3941
I9
tp3942
a(I11
S'nsubj'
p3943
I9
tp3944
a(I11
S'aux'
p3945
I10
tp3946
a(I13
S'amod'
p3947
I12
tp3948
a(I11
S'dobj'
p3949
I13
tp3950
a(I15
S'mark'
p3951
I14
tp3952
a(I11
S'advcl'
p3953
I15
tp3954
a(I19
S'nmod:poss'
p3955
I16
tp3956
a(I16
S'case'
p3957
I17
tp3958
a(I19
S'compound'
p3959
I18
tp3960
a(I15
S'dobj'
p3961
I19
tp3962
a(I11
S'punct'
p3963
I20
tp3964
aa(lp3965
(I2
g3
I2
tp3966
a(I2
S'nsubj'
p3967
I0
tp3968
a(I2
S'aux'
p3969
I1
tp3970
a(I4
S'nmod:poss'
p3971
I3
tp3972
a(I2
S'dobj'
p3973
I4
tp3974
a(I10
S'case'
p3975
I5
tp3976
a(I10
S'nmod:poss'
p3977
I6
tp3978
a(I6
S'case'
p3979
I7
tp3980
a(I10
S'amod'
p3981
I8
tp3982
a(I10
S'compound'
p3983
I9
tp3984
a(I2
S'nmod:to'
p3985
I10
tp3986
a(I2
S'advmod'
p3987
I11
tp3988
a(I2
S'punct'
p3989
I12
tp3990
aa(lp3991
(I0
g3
I0
tp3992
aa(lp3993
(I0
g3
I0
tp3994
a(I3
S'nummod'
p3995
I1
tp3996
a(I3
S'compound'
p3997
I2
tp3998
a(I0
S'dep'
p3999
I3
tp4000
a(I3
S'punct'
p4001
I4
tp4002
a(I3
S'dep'
p4003
I5
tp4004
a(I8
S'nummod'
p4005
I6
tp4006
a(I8
S'compound'
p4007
I7
tp4008
a(I5
S'dep'
p4009
I8
tp4010
aa(lp4011
(I0
g3
I0
tp4012
a(I0
S'punct'
p4013
I1
tp4014
a(I0
S'dep'
p4015
I2
tp4016
aa(lp4017
(I8
g3
I8
tp4018
a(I2
S'det'
p4019
I0
tp4020
a(I2
S'compound'
p4021
I1
tp4022
a(I3
S'nsubj'
p4023
I2
tp4024
a(I8
S'dep'
p4025
I3
tp4026
a(I6
S'case'
p4027
I4
tp4028
a(I6
S'compound'
p4029
I5
tp4030
a(I3
S'nmod:as'
p4031
I6
tp4032
a(I8
S'aux'
p4033
I7
tp4034
a(I8
S'dobj'
p4035
I9
tp4036
a(I13
S'case'
p4037
I10
tp4038
a(I13
S'nmod:poss'
p4039
I11
tp4040
a(I11
S'case'
p4041
I12
tp4042
a(I8
S'nmod:as'
p4043
I13
tp4044
a(I16
S'nummod'
p4045
I14
tp4046
a(I16
S'compound'
p4047
I15
tp4048
a(I8
S'nsubj'
p4049
I16
tp4050
a(I8
S'punct'
p4051
I17
tp4052
aa(lp4053
(I4
g3
I4
tp4054
a(I1
S'advmod'
p4055
I0
tp4056
a(I3
S'nummod'
p4057
I1
tp4058
a(I3
S'compound'
p4059
I2
tp4060
a(I4
S'nsubj'
p4061
I3
tp4062
a(I6
S'det'
p4063
I5
tp4064
a(I4
S'dobj'
p4065
I6
tp4066
a(I4
S'punct'
p4067
I7
tp4068
aa(lp4069
(I8
g3
I8
tp4070
a(I2
S'det'
p4071
I0
tp4072
a(I2
S'compound'
p4073
I1
tp4074
a(I3
S'nsubj'
p4075
I2
tp4076
a(I8
S'dep'
p4077
I3
tp4078
a(I6
S'case'
p4079
I4
tp4080
a(I6
S'compound'
p4081
I5
tp4082
a(I3
S'nmod:as'
p4083
I6
tp4084
a(I8
S'aux'
p4085
I7
tp4086
a(I8
S'dobj'
p4087
I9
tp4088
a(I13
S'case'
p4089
I10
tp4090
a(I13
S'nmod:poss'
p4091
I11
tp4092
a(I11
S'case'
p4093
I12
tp4094
a(I8
S'nmod:as'
p4095
I13
tp4096
a(I16
S'nummod'
p4097
I14
tp4098
a(I16
S'compound'
p4099
I15
tp4100
a(I8
S'nsubj'
p4101
I16
tp4102
a(I8
S'punct'
p4103
I17
tp4104
aa(lp4105
(I4
g3
I4
tp4106
a(I1
S'advmod'
p4107
I0
tp4108
a(I3
S'nummod'
p4109
I1
tp4110
a(I3
S'compound'
p4111
I2
tp4112
a(I4
S'nsubj'
p4113
I3
tp4114
a(I6
S'det'
p4115
I5
tp4116
a(I4
S'dobj'
p4117
I6
tp4118
a(I4
S'punct'
p4119
I7
tp4120
aa(lp4121
(I3
g3
I3
tp4122
a(I1
S'det'
p4123
I0
tp4124
a(I3
S'nsubj'
p4125
I1
tp4126
a(I3
S'aux'
p4127
I2
tp4128
a(I3
S'xcomp'
p4129
I4
tp4130
a(I7
S'case'
p4131
I5
tp4132
a(I7
S'compound'
p4133
I6
tp4134
a(I4
S'nmod:of'
p4135
I7
tp4136
a(I3
S'punct'
p4137
I8
tp4138
aa(lp4139
(I4
g3
I4
tp4140
a(I2
S'neg'
p4141
I0
tp4142
a(I2
S'amod'
p4143
I1
tp4144
a(I4
S'nsubj'
p4145
I2
tp4146
a(I4
S'aux'
p4147
I3
tp4148
a(I6
S'case'
p4149
I5
tp4150
a(I4
S'nmod:as'
p4151
I6
tp4152
a(I8
S'case'
p4153
I7
tp4154
a(I6
S'nmod:in'
p4155
I8
tp4156
a(I4
S'punct'
p4157
I9
tp4158
aa(lp4159
(I9
g3
I9
tp4160
a(I1
S'det'
p4161
I0
tp4162
a(I9
S'nsubj'
p4163
I1
tp4164
a(I4
S'case'
p4165
I2
tp4166
a(I4
S'det'
p4167
I3
tp4168
a(I1
S'nmod:on'
p4169
I4
tp4170
a(I7
S'case'
p4171
I5
tp4172
a(I7
S'nmod:poss'
p4173
I6
tp4174
a(I4
S'nmod:of'
p4175
I7
tp4176
a(I9
S'cop'
p4177
I8
tp4178
a(I9
S'punct'
p4179
I10
tp4180
aa(lp4181
(I2
g3
I2
tp4182
a(I0
S'compound'
p4183
I0
tp4184
a(I2
S'nsubjpass'
p4185
I0
tp4186
a(I2
S'auxpass'
p4187
I1
tp4188
a(I5
S'case'
p4189
I3
tp4190
a(I5
S'amod'
p4191
I4
tp4192
a(I2
S'nmod:as'
p4193
I5
tp4194
a(I7
S'case'
p4195
I6
tp4196
a(I5
S'nmod:in'
p4197
I7
tp4198
a(I2
S'punct'
p4199
I8
tp4200
aa(lp4201
(I3
g3
I3
tp4202
a(I3
S'nsubjpass'
p4203
I0
tp4204
a(I3
S'aux'
p4205
I1
tp4206
a(I3
S'auxpass'
p4207
I2
tp4208
a(I6
S'case'
p4209
I4
tp4210
a(I6
S'det'
p4211
I5
tp4212
a(I3
S'nmod:in'
p4213
I6
tp4214
a(I3
S'punct'
p4215
I7
tp4216
a(I3
S'dobj'
p4217
I8
tp4218
a(I8
S'amod'
p4219
I9
tp4220
a(I9
S'punct'
p4221
I10
tp4222
a(I12
S'compound'
p4223
I11
tp4224
a(I9
S'dep'
p4225
I12
tp4226
a(I15
S'nsubj'
p4227
I13
tp4228
a(I15
S'aux'
p4229
I14
tp4230
a(I12
S'acl:relcl'
p4231
I15
tp4232
a(I18
S'case'
p4233
I16
tp4234
a(I18
S'det'
p4235
I17
tp4236
a(I15
S'nmod:in'
p4237
I18
tp4238
a(I23
S'case'
p4239
I19
tp4240
a(I21
S'advmod'
p4241
I20
tp4242
a(I23
S'nummod'
p4243
I21
tp4244
a(I23
S'amod'
p4245
I22
tp4246
a(I18
S'nmod:of'
p4247
I23
tp4248
a(I3
S'punct'
p4249
I24
tp4250
aa(lp4251
(I3
g3
I3
tp4252
a(I3
S'nsubjpass'
p4253
I0
tp4254
a(I3
S'aux'
p4255
I1
tp4256
a(I3
S'auxpass'
p4257
I2
tp4258
a(I6
S'case'
p4259
I4
tp4260
a(I6
S'det'
p4261
I5
tp4262
a(I3
S'nmod:in'
p4263
I6
tp4264
a(I3
S'punct'
p4265
I7
tp4266
a(I3
S'dobj'
p4267
I8
tp4268
a(I8
S'amod'
p4269
I9
tp4270
a(I9
S'punct'
p4271
I10
tp4272
a(I12
S'compound'
p4273
I11
tp4274
a(I9
S'dep'
p4275
I12
tp4276
a(I15
S'nsubj'
p4277
I13
tp4278
a(I15
S'aux'
p4279
I14
tp4280
a(I12
S'acl:relcl'
p4281
I15
tp4282
a(I18
S'case'
p4283
I16
tp4284
a(I18
S'det'
p4285
I17
tp4286
a(I15
S'nmod:in'
p4287
I18
tp4288
a(I23
S'case'
p4289
I19
tp4290
a(I21
S'advmod'
p4291
I20
tp4292
a(I23
S'nummod'
p4293
I21
tp4294
a(I23
S'amod'
p4295
I22
tp4296
a(I18
S'nmod:of'
p4297
I23
tp4298
a(I3
S'punct'
p4299
I24
tp4300
aa(lp4301
(I1
g3
I1
tp4302
a(I1
S'expl'
p4303
I0
tp4304
a(I3
S'amod'
p4305
I2
tp4306
a(I1
S'nsubj'
p4307
I3
tp4308
a(I6
S'case'
p4309
I4
tp4310
a(I6
S'det'
p4311
I5
tp4312
a(I3
S'nmod:over'
p4313
I6
tp4314
a(I1
S'punct'
p4315
I7
tp4316
aa(lp4317
(I4
g3
I4
tp4318
a(I1
S'det'
p4319
I0
tp4320
a(I3
S'nmod:poss'
p4321
I1
tp4322
a(I1
S'case'
p4323
I2
tp4324
a(I4
S'nsubj'
p4325
I3
tp4326
a(I7
S'case'
p4327
I5
tp4328
a(I7
S'det'
p4329
I6
tp4330
a(I4
S'nmod:in'
p4331
I7
tp4332
a(I7
S'punct'
p4333
I8
tp4334
a(I7
S'dep'
p4335
I9
tp4336
a(I4
S'punct'
p4337
I10
tp4338
aa(lp4339
(I2
g3
I2
tp4340
a(I2
S'nsubj'
p4341
I0
tp4342
a(I2
S'aux'
p4343
I1
tp4344
a(I9
S'nsubj'
p4345
I3
tp4346
a(I5
S'det'
p4347
I4
tp4348
a(I9
S'nmod:poss'
p4349
I5
tp4350
a(I5
S'case'
p4351
I6
tp4352
a(I9
S'compound'
p4353
I7
tp4354
a(I9
S'nummod'
p4355
I8
tp4356
a(I2
S'xcomp'
p4357
I9
tp4358
a(I2
S'punct'
p4359
I10
tp4360
aa(lp4361
(I2
g3
I2
tp4362
a(I2
S'nsubj'
p4363
I0
tp4364
a(I2
S'aux'
p4365
I1
tp4366
a(I9
S'nsubj'
p4367
I3
tp4368
a(I5
S'det'
p4369
I4
tp4370
a(I9
S'nmod:poss'
p4371
I5
tp4372
a(I5
S'case'
p4373
I6
tp4374
a(I9
S'compound'
p4375
I7
tp4376
a(I9
S'nummod'
p4377
I8
tp4378
a(I2
S'xcomp'
p4379
I9
tp4380
a(I2
S'punct'
p4381
I10
tp4382
aa(lp4383
(I0
g3
I0
tp4384
a(I0
S'punct'
p4385
I0
tp4386
a(I0
S'dep'
p4387
I0
tp4388
a(I0
S'amod'
p4389
I0
tp4390
a(I0
S'cc'
p4391
I1
tp4392
a(I4
S'compound'
p4393
I2
tp4394
a(I4
S'amod'
p4395
I3
tp4396
a(I0
S'conj:and'
p4397
I4
tp4398
a(I9
S'case'
p4399
I5
tp4400
a(I9
S'nmod:poss'
p4401
I6
tp4402
a(I9
S'compound'
p4403
I7
tp4404
a(I9
S'compound'
p4405
I8
tp4406
a(I4
S'nmod:in'
p4407
I9
tp4408
a(I11
S'advmod'
p4409
I10
tp4410
a(I9
S'acl'
p4411
I11
tp4412
a(I14
S'case'
p4413
I12
tp4414
a(I14
S'det'
p4415
I13
tp4416
a(I11
S'nmod:by'
p4417
I14
tp4418
a(I14
S'case'
p4419
I14
tp4420
a(I14
S'nmod:of'
p4421
I14
tp4422
a(I17
S'case'
p4423
I15
tp4424
a(I17
S'amod'
p4425
I16
tp4426
a(I17
S'compound'
p4427
I17
tp4428
a(I14
S'nmod:on'
p4429
I17
tp4430
a(I23
S'mark'
p4431
I18
tp4432
a(I21
S'det'
p4433
I19
tp4434
a(I21
S'amod'
p4435
I20
tp4436
a(I23
S'nsubjpass'
p4437
I21
tp4438
a(I23
S'auxpass'
p4439
I22
tp4440
a(I11
S'ccomp'
p4441
I23
tp4442
a(I25
S'case'
p4443
I24
tp4444
a(I23
S'nmod:across'
p4445
I25
tp4446
a(I28
S'case'
p4447
I26
tp4448
a(I28
S'cc:preconj'
p4449
I27
tp4450
a(I25
S'nmod:for'
p4451
I28
tp4452
a(I28
S'cc'
p4453
I29
tp4454
a(I28
S'conj:and'
p4455
I30
tp4456
a(I0
S'punct'
p4457
I31
tp4458
aa(lp4459
(I0
g3
I0
tp4460
a(I0
S'punct'
p4461
I0
tp4462
a(I0
S'dep'
p4463
I0
tp4464
a(I0
S'amod'
p4465
I0
tp4466
a(I0
S'cc'
p4467
I1
tp4468
a(I4
S'compound'
p4469
I2
tp4470
a(I4
S'amod'
p4471
I3
tp4472
a(I0
S'conj:and'
p4473
I4
tp4474
a(I9
S'case'
p4475
I5
tp4476
a(I9
S'nmod:poss'
p4477
I6
tp4478
a(I9
S'compound'
p4479
I7
tp4480
a(I9
S'compound'
p4481
I8
tp4482
a(I4
S'nmod:in'
p4483
I9
tp4484
a(I11
S'advmod'
p4485
I10
tp4486
a(I9
S'acl'
p4487
I11
tp4488
a(I14
S'case'
p4489
I12
tp4490
a(I14
S'det'
p4491
I13
tp4492
a(I11
S'nmod:by'
p4493
I14
tp4494
a(I14
S'case'
p4495
I14
tp4496
a(I14
S'nmod:of'
p4497
I14
tp4498
a(I17
S'case'
p4499
I15
tp4500
a(I17
S'amod'
p4501
I16
tp4502
a(I17
S'compound'
p4503
I17
tp4504
a(I14
S'nmod:on'
p4505
I17
tp4506
a(I23
S'mark'
p4507
I18
tp4508
a(I21
S'det'
p4509
I19
tp4510
a(I21
S'amod'
p4511
I20
tp4512
a(I23
S'nsubjpass'
p4513
I21
tp4514
a(I23
S'auxpass'
p4515
I22
tp4516
a(I11
S'ccomp'
p4517
I23
tp4518
a(I25
S'case'
p4519
I24
tp4520
a(I23
S'nmod:across'
p4521
I25
tp4522
a(I28
S'case'
p4523
I26
tp4524
a(I28
S'cc:preconj'
p4525
I27
tp4526
a(I25
S'nmod:for'
p4527
I28
tp4528
a(I28
S'cc'
p4529
I29
tp4530
a(I28
S'conj:and'
p4531
I30
tp4532
a(I0
S'punct'
p4533
I31
tp4534
aa(lp4535
(I9
g3
I9
tp4536
a(I1
S'compound'
p4537
I0
tp4538
a(I9
S'nsubj'
p4539
I1
tp4540
a(I1
S'punct'
p4541
I2
tp4542
a(I1
S'conj:and'
p4543
I3
tp4544
a(I1
S'punct'
p4545
I4
tp4546
a(I1
S'conj:and'
p4547
I5
tp4548
a(I1
S'cc'
p4549
I6
tp4550
a(I8
S'compound'
p4551
I7
tp4552
a(I1
S'conj:and'
p4553
I8
tp4554
a(I11
S'det'
p4555
I10
tp4556
a(I9
S'dobj'
p4557
I11
tp4558
a(I13
S'mark'
p4559
I12
tp4560
a(I9
S'xcomp'
p4561
I13
tp4562
a(I13
S'dobj'
p4563
I14
tp4564
a(I17
S'mark'
p4565
I15
tp4566
a(I17
S'advmod'
p4567
I16
tp4568
a(I13
S'advcl'
p4569
I17
tp4570
a(I17
S'nmod:tmod'
p4571
I18
tp4572
a(I9
S'punct'
p4573
I19
tp4574
aa(lp4575
(I9
g3
I9
tp4576
a(I1
S'compound'
p4577
I0
tp4578
a(I9
S'nsubj'
p4579
I1
tp4580
a(I1
S'punct'
p4581
I2
tp4582
a(I1
S'conj:and'
p4583
I3
tp4584
a(I1
S'punct'
p4585
I4
tp4586
a(I1
S'conj:and'
p4587
I5
tp4588
a(I1
S'cc'
p4589
I6
tp4590
a(I8
S'compound'
p4591
I7
tp4592
a(I1
S'conj:and'
p4593
I8
tp4594
a(I11
S'det'
p4595
I10
tp4596
a(I9
S'dobj'
p4597
I11
tp4598
a(I13
S'mark'
p4599
I12
tp4600
a(I9
S'xcomp'
p4601
I13
tp4602
a(I13
S'dobj'
p4603
I14
tp4604
a(I17
S'mark'
p4605
I15
tp4606
a(I17
S'advmod'
p4607
I16
tp4608
a(I13
S'advcl'
p4609
I17
tp4610
a(I17
S'nmod:tmod'
p4611
I18
tp4612
a(I9
S'punct'
p4613
I19
tp4614
aa(lp4615
(I1
g3
I1
tp4616
a(I1
S'nsubj'
p4617
I0
tp4618
a(I1
S'dobj'
p4619
I2
tp4620
a(I4
S'mark'
p4621
I3
tp4622
a(I1
S'xcomp'
p4623
I4
tp4624
a(I7
S'case'
p4625
I5
tp4626
a(I7
S'compound'
p4627
I6
tp4628
a(I4
S'nmod:through'
p4629
I7
tp4630
a(I1
S'punct'
p4631
I8
tp4632
aa(lp4633
(I1
g3
I1
tp4634
a(I1
S'nsubj'
p4635
I0
tp4636
a(I1
S'dobj'
p4637
I2
tp4638
a(I4
S'mark'
p4639
I3
tp4640
a(I1
S'xcomp'
p4641
I4
tp4642
a(I6
S'nsubj'
p4643
I5
tp4644
a(I4
S'ccomp'
p4645
I6
tp4646
a(I8
S'det'
p4647
I7
tp4648
a(I6
S'nmod:tmod'
p4649
I8
tp4650
a(I1
S'punct'
p4651
I9
tp4652
aa(lp4653
(I0
g3
I0
tp4654
aa(lp4655
(I0
g3
I0
tp4656
a(I3
S'nummod'
p4657
I1
tp4658
a(I3
S'compound'
p4659
I2
tp4660
a(I0
S'dep'
p4661
I3
tp4662
a(I3
S'punct'
p4663
I4
tp4664
a(I8
S'compound'
p4665
I5
tp4666
a(I8
S'compound'
p4667
I6
tp4668
a(I8
S'compound'
p4669
I7
tp4670
a(I3
S'dep'
p4671
I8
tp4672
a(I10
S'case'
p4673
I9
tp4674
a(I10
S'nummod'
p4675
I10
tp4676
a(I8
S'nmod:of'
p4677
I10
tp4678
a(I0
S'dep'
p4679
I11
tp4680
a(I11
S'nummod'
p4681
I12
tp4682
aa(lp4683
(I0
g3
I0
tp4684
a(I0
S'punct'
p4685
I1
tp4686
a(I0
S'dep'
p4687
I2
tp4688
a(I2
S'punct'
p4689
I3
tp4690
a(I2
S'dep'
p4691
I4
tp4692
a(I4
S'punct'
p4693
I5
tp4694
a(I4
S'dep'
p4695
I6
tp4696
a(I4
S'punct'
p4697
I7
tp4698
a(I4
S'dep'
p4699
I8
tp4700
a(I8
S'punct'
p4701
I9
tp4702
a(I8
S'dep'
p4703
I10
tp4704
aa(lp4705
(I3
g3
I3
tp4706
a(I2
S'det'
p4707
I0
tp4708
a(I2
S'compound'
p4709
I1
tp4710
a(I3
S'nsubj'
p4711
I2
tp4712
a(I15
S'mark'
p4713
I4
tp4714
a(I6
S'nummod'
p4715
I5
tp4716
a(I15
S'nsubj'
p4717
I6
tp4718
a(I11
S'case'
p4719
I7
tp4720
a(I11
S'amod'
p4721
I8
tp4722
a(I11
S'amod'
p4723
I9
tp4724
a(I11
S'compound'
p4725
I10
tp4726
a(I6
S'nmod:of'
p4727
I11
tp4728
a(I13
S'det'
p4729
I12
tp4730
a(I13
S'nmod:poss'
p4731
I13
tp4732
a(I13
S'case'
p4733
I13
tp4734
a(I14
S'nsubj'
p4735
I13
tp4736
a(I11
S'acl:relcl'
p4737
I14
tp4738
a(I3
S'ccomp'
p4739
I15
tp4740
a(I3
S'punct'
p4741
I16
tp4742
aa(lp4743
(I2
g3
I2
tp4744
a(I1
S'det'
p4745
I0
tp4746
a(I2
S'nsubj'
p4747
I1
tp4748
a(I4
S'det'
p4749
I3
tp4750
a(I4
S'nmod:poss'
p4751
I4
tp4752
a(I4
S'case'
p4753
I4
tp4754
a(I7
S'nmod:poss'
p4755
I4
tp4756
a(I4
S'case'
p4757
I5
tp4758
a(I7
S'amod'
p4759
I6
tp4760
a(I8
S'nsubj'
p4761
I7
tp4762
a(I8
S'compound'
p4763
I8
tp4764
a(I2
S'xcomp'
p4765
I8
tp4766
a(I2
S'punct'
p4767
I9
tp4768
aa(lp4769
(I0
g3
I0
tp4770
a(I0
S'nummod'
p4771
I0
tp4772
a(I0
S'nummod'
p4773
I0
tp4774
a(I0
S'punct'
p4775
I1
tp4776
a(I4
S'det'
p4777
I2
tp4778
a(I4
S'compound'
p4779
I3
tp4780
a(I5
S'nsubj'
p4781
I4
tp4782
a(I0
S'parataxis'
p4783
I5
tp4784
a(I17
S'mark'
p4785
I6
tp4786
a(I8
S'nummod'
p4787
I7
tp4788
a(I17
S'nsubj'
p4789
I8
tp4790
a(I13
S'case'
p4791
I9
tp4792
a(I13
S'amod'
p4793
I10
tp4794
a(I13
S'amod'
p4795
I11
tp4796
a(I13
S'compound'
p4797
I12
tp4798
a(I8
S'nmod:of'
p4799
I13
tp4800
a(I15
S'det'
p4801
I14
tp4802
a(I15
S'nmod:poss'
p4803
I15
tp4804
a(I15
S'case'
p4805
I15
tp4806
a(I16
S'nsubj'
p4807
I15
tp4808
a(I13
S'acl:relcl'
p4809
I16
tp4810
a(I5
S'ccomp'
p4811
I17
tp4812
a(I0
S'punct'
p4813
I18
tp4814
aa(lp4815
(I2
g3
I2
tp4816
a(I1
S'compound'
p4817
I0
tp4818
a(I2
S'nsubj'
p4819
I1
tp4820
a(I7
S'mark'
p4821
I3
tp4822
a(I5
S'det'
p4823
I4
tp4824
a(I7
S'nsubjpass'
p4825
I5
tp4826
a(I7
S'auxpass'
p4827
I6
tp4828
a(I2
S'ccomp'
p4829
I7
tp4830
a(I9
S'case'
p4831
I8
tp4832
a(I7
S'nmod:under'
p4833
I9
tp4834
a(I12
S'case'
p4835
I10
tp4836
a(I12
S'amod'
p4837
I11
tp4838
a(I9
S'nmod:for'
p4839
I12
tp4840
a(I2
S'punct'
p4841
I13
tp4842
aa(lp4843
(I2
g3
I2
tp4844
a(I1
S'det'
p4845
I0
tp4846
a(I2
S'nsubj'
p4847
I1
tp4848
a(I4
S'det'
p4849
I3
tp4850
a(I4
S'nmod:poss'
p4851
I4
tp4852
a(I4
S'case'
p4853
I4
tp4854
a(I7
S'nmod:poss'
p4855
I4
tp4856
a(I4
S'case'
p4857
I5
tp4858
a(I7
S'amod'
p4859
I6
tp4860
a(I8
S'nsubj'
p4861
I7
tp4862
a(I8
S'compound'
p4863
I8
tp4864
a(I2
S'xcomp'
p4865
I8
tp4866
a(I2
S'punct'
p4867
I9
tp4868
aa(lp4869
(I2
g3
I2
tp4870
a(I1
S'det'
p4871
I0
tp4872
a(I2
S'nmod:poss'
p4873
I1
tp4874
a(I1
S'case'
p4875
I1
tp4876
a(I2
S'amod'
p4877
I1
tp4878
a(I6
S'compound'
p4879
I3
tp4880
a(I6
S'amod'
p4881
I4
tp4882
a(I6
S'det'
p4883
I5
tp4884
a(I2
S'dep'
p4885
I6
tp4886
a(I2
S'punct'
p4887
I7
tp4888
a(I2
S'dep'
p4889
I8
tp4890
a(I13
S'case'
p4891
I9
tp4892
a(I13
S'det'
p4893
I10
tp4894
a(I13
S'amod'
p4895
I11
tp4896
a(I13
S'amod'
p4897
I12
tp4898
a(I8
S'nmod:of'
p4899
I13
tp4900
a(I2
S'punct'
p4901
I14
tp4902
aa(lp4903
(I2
g3
I2
tp4904
a(I1
S'det'
p4905
I0
tp4906
a(I2
S'nsubj'
p4907
I1
tp4908
a(I5
S'nmod:poss'
p4909
I3
tp4910
a(I3
S'case'
p4911
I4
tp4912
a(I2
S'dobj'
p4913
I5
tp4914
a(I11
S'mark'
p4915
I6
tp4916
a(I9
S'det'
p4917
I7
tp4918
a(I9
S'nummod'
p4919
I8
tp4920
a(I11
S'nsubjpass'
p4921
I9
tp4922
a(I11
S'auxpass'
p4923
I10
tp4924
a(I2
S'ccomp'
p4925
I11
tp4926
a(I14
S'case'
p4927
I12
tp4928
a(I14
S'amod'
p4929
I13
tp4930
a(I11
S'nmod:from'
p4931
I14
tp4932
a(I2
S'punct'
p4933
I15
tp4934
aa(lp4935
(I7
g3
I7
tp4936
a(I1
S'case'
p4937
I0
tp4938
a(I7
S'nmod:on'
p4939
I1
tp4940
a(I7
S'nmod:tmod'
p4941
I1
tp4942
a(I1
S'nummod'
p4943
I1
tp4944
a(I2
S'nummod'
p4945
I1
tp4946
a(I7
S'nsubjpass'
p4947
I2
tp4948
a(I5
S'case'
p4949
I3
tp4950
a(I5
S'det'
p4951
I4
tp4952
a(I5
S'nmod:poss'
p4953
I5
tp4954
a(I5
S'case'
p4955
I5
tp4956
a(I2
S'nmod:of'
p4957
I5
tp4958
a(I7
S'auxpass'
p4959
I6
tp4960
a(I10
S'case'
p4961
I8
tp4962
a(I10
S'amod'
p4963
I9
tp4964
a(I7
S'nmod:under'
p4965
I10
tp4966
a(I7
S'punct'
p4967
I11
tp4968
aa(lp4969
(I3
g3
I3
tp4970
a(I2
S'det'
p4971
I0
tp4972
a(I2
S'nummod'
p4973
I1
tp4974
a(I3
S'nsubj'
p4975
I2
tp4976
a(I3
S'dobj'
p4977
I4
tp4978
a(I3
S'punct'
p4979
I5
tp4980
aa(lp4981
(I5
g3
I5
tp4982
a(I1
S'det'
p4983
I0
tp4984
a(I5
S'nsubj'
p4985
I1
tp4986
a(I5
S'cop'
p4987
I2
tp4988
a(I5
S'det'
p4989
I3
tp4990
a(I5
S'amod'
p4991
I4
tp4992
a(I9
S'case'
p4993
I6
tp4994
a(I9
S'amod'
p4995
I7
tp4996
a(I9
S'amod'
p4997
I8
tp4998
a(I5
S'nmod:toward'
p4999
I9
tp5000
a(I12
S'case'
p5001
I10
tp5002
a(I12
S'amod'
p5003
I11
tp5004
a(I9
S'nmod:for'
p5005
I12
tp5006
a(I15
S'case'
p5007
I13
tp5008
a(I15
S'det'
p5009
I14
tp5010
a(I15
S'nmod:poss'
p5011
I15
tp5012
a(I15
S'case'
p5013
I15
tp5014
a(I12
S'nmod:between'
p5015
I15
tp5016
a(I15
S'cc'
p5017
I16
tp5018
a(I19
S'det'
p5019
I17
tp5020
a(I19
S'amod'
p5021
I18
tp5022
a(I15
S'conj:and'
p5023
I19
tp5024
a(I9
S'cc'
p5025
I20
tp5026
a(I22
S'mark'
p5027
I21
tp5028
a(I9
S'conj:and'
p5029
I22
tp5030
a(I24
S'amod'
p5031
I23
tp5032
a(I22
S'dobj'
p5033
I24
tp5034
a(I5
S'punct'
p5035
I25
tp5036
aa(lp5037
(I3
g3
I3
tp5038
a(I0
S'amod'
p5039
I0
tp5040
a(I3
S'nmod:tmod'
p5041
I0
tp5042
a(I2
S'amod'
p5043
I1
tp5044
a(I3
S'nsubj'
p5045
I2
tp5046
a(I7
S'advmod'
p5047
I4
tp5048
a(I4
S'mwe'
p5049
I5
tp5050
a(I7
S'advmod'
p5051
I6
tp5052
a(I8
S'nummod'
p5053
I7
tp5054
a(I3
S'dobj'
p5055
I8
tp5056
a(I8
S'acl'
p5057
I9
tp5058
a(I12
S'case'
p5059
I10
tp5060
a(I12
S'det'
p5061
I11
tp5062
a(I12
S'nmod:poss'
p5063
I12
tp5064
a(I12
S'case'
p5065
I12
tp5066
a(I9
S'nmod:to'
p5067
I12
tp5068
a(I12
S'advmod'
p5069
I13
tp5070
a(I15
S'case'
p5071
I14
tp5072
a(I13
S'nmod:of'
p5073
I15
tp5074
a(I3
S'punct'
p5075
I16
tp5076
aa(lp5077
(I3
g3
I3
tp5078
a(I1
S'compound'
p5079
I0
tp5080
a(I3
S'nsubj'
p5081
I1
tp5082
a(I3
S'aux'
p5083
I2
tp5084
a(I5
S'det'
p5085
I4
tp5086
a(I5
S'nmod:poss'
p5087
I5
tp5088
a(I5
S'case'
p5089
I5
tp5090
a(I3
S'dobj'
p5091
I5
tp5092
a(I7
S'mark'
p5093
I6
tp5094
a(I5
S'acl'
p5095
I7
tp5096
a(I7
S'dobj'
p5097
I8
tp5098
a(I12
S'case'
p5099
I9
tp5100
a(I12
S'det'
p5101
I10
tp5102
a(I12
S'amod'
p5103
I11
tp5104
a(I8
S'nmod:as'
p5105
I12
tp5106
a(I14
S'mark'
p5107
I13
tp5108
a(I7
S'advcl'
p5109
I14
tp5110
a(I14
S'dobj'
p5111
I15
tp5112
a(I18
S'case'
p5113
I16
tp5114
a(I18
S'amod'
p5115
I17
tp5116
a(I14
S'nmod:against'
p5117
I18
tp5118
a(I3
S'punct'
p5119
I19
tp5120
aa(lp5121
(I8
g3
I8
tp5122
a(I1
S'det'
p5123
I0
tp5124
a(I8
S'nsubj'
p5125
I1
tp5126
a(I3
S'case'
p5127
I2
tp5128
a(I1
S'nmod:of'
p5129
I3
tp5130
a(I5
S'case'
p5131
I4
tp5132
a(I3
S'nmod:in'
p5133
I5
tp5134
a(I5
S'cc'
p5135
I6
tp5136
a(I5
S'conj:and'
p5137
I7
tp5138
a(I10
S'det'
p5139
I9
tp5140
a(I8
S'dobj'
p5141
I10
tp5142
a(I8
S'punct'
p5143
I11
tp5144
aa(lp5145
(I2
g3
I2
tp5146
a(I1
S'nummod'
p5147
I0
tp5148
a(I2
S'nsubj'
p5149
I1
tp5150
a(I2
S'dobj'
p5151
I3
tp5152
a(I5
S'case'
p5153
I4
tp5154
a(I2
S'nmod:on'
p5155
I5
tp5156
a(I8
S'case'
p5157
I6
tp5158
a(I8
S'det'
p5159
I7
tp5160
a(I5
S'nmod:at'
p5161
I8
tp5162
a(I2
S'punct'
p5163
I9
tp5164
aa(lp5165
(I9
g3
I9
tp5166
a(I1
S'det'
p5167
I0
tp5168
a(I9
S'nsubj'
p5169
I1
tp5170
a(I3
S'case'
p5171
I2
tp5172
a(I1
S'nmod:in'
p5173
I3
tp5174
a(I1
S'cc'
p5175
I4
tp5176
a(I6
S'det'
p5177
I5
tp5178
a(I1
S'conj:and'
p5179
I6
tp5180
a(I8
S'case'
p5181
I7
tp5182
a(I6
S'nmod:in'
p5183
I8
tp5184
a(I11
S'case'
p5185
I10
tp5186
a(I9
S'nmod:from'
p5187
I11
tp5188
a(I11
S'acl'
p5189
I12
tp5190
a(I14
S'mark'
p5191
I13
tp5192
a(I12
S'advcl'
p5193
I14
tp5194
a(I14
S'dobj'
p5195
I15
tp5196
a(I17
S'case'
p5197
I16
tp5198
a(I14
S'nmod:on'
p5199
I17
tp5200
a(I9
S'punct'
p5201
I18
tp5202
aa(lp5203
(I3
g3
I3
tp5204
a(I2
S'amod'
p5205
I0
tp5206
a(I2
S'compound'
p5207
I1
tp5208
a(I3
S'nsubj'
p5209
I2
tp5210
a(I6
S'det'
p5211
I4
tp5212
a(I6
S'compound'
p5213
I5
tp5214
a(I3
S'dobj'
p5215
I6
tp5216
a(I9
S'case'
p5217
I7
tp5218
a(I9
S'det'
p5219
I8
tp5220
a(I3
S'nmod:at'
p5221
I9
tp5222
a(I12
S'case'
p5223
I10
tp5224
a(I12
S'det'
p5225
I11
tp5226
a(I12
S'compound'
p5227
I12
tp5228
a(I9
S'nmod:of'
p5229
I12
tp5230
a(I12
S'case'
p5231
I12
tp5232
a(I12
S'nmod:of'
p5233
I12
tp5234
a(I12
S'case'
p5235
I12
tp5236
a(I12
S'nmod:of'
p5237
I12
tp5238
a(I12
S'nummod'
p5239
I13
tp5240
a(I3
S'nmod:tmod'
p5241
I14
tp5242
a(I14
S'nummod'
p5243
I15
tp5244
a(I3
S'punct'
p5245
I16
tp5246
aa(lp5247
(I9
g3
I9
tp5248
a(I2
S'advmod'
p5249
I0
tp5250
a(I0
S'mwe'
p5251
I1
tp5252
a(I9
S'nsubjpass'
p5253
I2
tp5254
a(I6
S'case'
p5255
I3
tp5256
a(I6
S'det'
p5257
I4
tp5258
a(I6
S'compound'
p5259
I5
tp5260
a(I2
S'nmod:of'
p5261
I6
tp5262
a(I9
S'aux'
p5263
I7
tp5264
a(I9
S'auxpass'
p5265
I8
tp5266
a(I11
S'case'
p5267
I10
tp5268
a(I9
S'nmod:in'
p5269
I11
tp5270
a(I13
S'case'
p5271
I12
tp5272
a(I11
S'nmod:for'
p5273
I13
tp5274
a(I9
S'punct'
p5275
I14
tp5276
aa(lp5277
(I5
g3
I5
tp5278
a(I1
S'advmod'
p5279
I0
tp5280
a(I2
S'nummod'
p5281
I1
tp5282
a(I5
S'nsubjpass'
p5283
I2
tp5284
a(I5
S'aux'
p5285
I3
tp5286
a(I5
S'auxpass'
p5287
I4
tp5288
a(I9
S'case'
p5289
I6
tp5290
a(I9
S'det'
p5291
I7
tp5292
a(I9
S'compound'
p5293
I8
tp5294
a(I5
S'nmod:in'
p5295
I9
tp5296
a(I12
S'case'
p5297
I10
tp5298
a(I12
S'det'
p5299
I11
tp5300
a(I12
S'nmod:poss'
p5301
I12
tp5302
a(I12
S'case'
p5303
I12
tp5304
a(I9
S'nmod:on'
p5305
I12
tp5306
a(I5
S'punct'
p5307
I13
tp5308
aa(lp5309
(I0
g3
I0
tp5310
aa(lp5311
(I4
g3
I4
tp5312
a(I1
S'det'
p5313
I0
tp5314
a(I1
S'nmod:poss'
p5315
I1
tp5316
a(I1
S'case'
p5317
I1
tp5318
a(I4
S'nsubjpass'
p5319
I1
tp5320
a(I4
S'aux'
p5321
I2
tp5322
a(I4
S'auxpass'
p5323
I3
tp5324
a(I7
S'case'
p5325
I5
tp5326
a(I7
S'det'
p5327
I6
tp5328
a(I4
S'nmod:agent'
p5329
I7
tp5330
a(I7
S'punct'
p5331
I8
tp5332
a(I10
S'det'
p5333
I9
tp5334
a(I7
S'conj:and'
p5335
I10
tp5336
a(I7
S'cc'
p5337
I11
tp5338
a(I7
S'conj:and'
p5339
I12
tp5340
a(I16
S'case'
p5341
I13
tp5342
a(I16
S'det'
p5343
I14
tp5344
a(I16
S'amod'
p5345
I15
tp5346
a(I4
S'nmod:as'
p5347
I16
tp5348
a(I4
S'punct'
p5349
I17
tp5350
aa(lp5351
(I10
g3
I10
tp5352
a(I1
S'det'
p5353
I0
tp5354
a(I3
S'nmod:poss'
p5355
I1
tp5356
a(I1
S'case'
p5357
I1
tp5358
a(I3
S'compound'
p5359
I1
tp5360
a(I3
S'amod'
p5361
I2
tp5362
a(I10
S'nsubjpass'
p5363
I3
tp5364
a(I3
S'acl'
p5365
I4
tp5366
a(I4
S'dobj'
p5367
I5
tp5368
a(I7
S'case'
p5369
I6
tp5370
a(I5
S'nmod:in'
p5371
I7
tp5372
a(I10
S'aux'
p5373
I8
tp5374
a(I10
S'auxpass'
p5375
I9
tp5376
a(I13
S'case'
p5377
I11
tp5378
a(I13
S'compound'
p5379
I12
tp5380
a(I10
S'nmod:agent'
p5381
I13
tp5382
a(I10
S'punct'
p5383
I14
tp5384
aa(lp5385
(I3
g3
I3
tp5386
a(I1
S'det'
p5387
I0
tp5388
a(I1
S'nmod:poss'
p5389
I1
tp5390
a(I1
S'case'
p5391
I1
tp5392
a(I3
S'nsubj'
p5393
I1
tp5394
a(I3
S'aux'
p5395
I2
tp5396
a(I5
S'amod'
p5397
I4
tp5398
a(I3
S'dobj'
p5399
I5
tp5400
a(I7
S'mark'
p5401
I6
tp5402
a(I5
S'acl'
p5403
I7
tp5404
a(I7
S'compound:prt'
p5405
I8
tp5406
a(I10
S'nmod:poss'
p5407
I9
tp5408
a(I7
S'dobj'
p5409
I10
tp5410
a(I12
S'case'
p5411
I11
tp5412
a(I7
S'nmod:as'
p5413
I12
tp5414
a(I15
S'case'
p5415
I13
tp5416
a(I15
S'det'
p5417
I14
tp5418
a(I12
S'nmod:of'
p5419
I15
tp5420
a(I17
S'case'
p5421
I16
tp5422
a(I15
S'nmod:with'
p5423
I17
tp5424
a(I3
S'punct'
p5425
I18
tp5426
aa(lp5427
(I1
g3
I1
tp5428
a(I1
S'nsubj'
p5429
I0
tp5430
a(I1
S'xcomp'
p5431
I2
tp5432
a(I5
S'det:predet'
p5433
I3
tp5434
a(I5
S'det'
p5435
I4
tp5436
a(I2
S'dobj'
p5437
I5
tp5438
a(I7
S'case'
p5439
I6
tp5440
a(I2
S'nmod:with'
p5441
I7
tp5442
a(I1
S'punct'
p5443
I8
tp5444
aa(lp5445
(I7
g3
I7
tp5446
a(I1
S'det'
p5447
I0
tp5448
a(I7
S'nsubj'
p5449
I1
tp5450
a(I7
S'cop'
p5451
I2
tp5452
a(I4
S'det'
p5453
I3
tp5454
a(I4
S'nmod:poss'
p5455
I4
tp5456
a(I4
S'case'
p5457
I4
tp5458
a(I7
S'nmod:poss'
p5459
I4
tp5460
a(I4
S'case'
p5461
I5
tp5462
a(I7
S'amod'
p5463
I6
tp5464
a(I9
S'case'
p5465
I8
tp5466
a(I7
S'nmod:in'
p5467
I9
tp5468
a(I7
S'punct'
p5469
I9
tp5470
a(I9
S'dep'
p5471
I9
tp5472
a(I9
S'punct'
p5473
I9
tp5474
a(I7
S'parataxis'
p5475
I9
tp5476
a(I7
S'punct'
p5477
I10
tp5478
aa(lp5479
(I3
g3
I3
tp5480
a(I1
S'compound'
p5481
I0
tp5482
a(I3
S'nsubjpass'
p5483
I1
tp5484
a(I3
S'auxpass'
p5485
I2
tp5486
a(I8
S'case'
p5487
I4
tp5488
a(I8
S'nmod:poss'
p5489
I5
tp5490
a(I5
S'case'
p5491
I6
tp5492
a(I8
S'compound'
p5493
I7
tp5494
a(I3
S'nmod:agent'
p5495
I8
tp5496
a(I3
S'punct'
p5497
I9
tp5498
aa(lp5499
(I8
g3
I8
tp5500
a(I8
S'nsubj'
p5501
I0
tp5502
a(I2
S'case'
p5503
I1
tp5504
a(I0
S'nmod:in'
p5505
I2
tp5506
a(I6
S'punct'
p5507
I3
tp5508
a(I6
S'dep'
p5509
I4
tp5510
a(I6
S'punct'
p5511
I5
tp5512
a(I0
S'dep'
p5513
I6
tp5514
a(I8
S'aux'
p5515
I7
tp5516
a(I10
S'nummod'
p5517
I9
tp5518
a(I8
S'dobj'
p5519
I10
tp5520
a(I8
S'nmod:tmod'
p5521
I11
tp5522
a(I11
S'nummod'
p5523
I12
tp5524
a(I15
S'nummod'
p5525
I12
tp5526
a(I15
S'compound'
p5527
I13
tp5528
a(I15
S'compound'
p5529
I14
tp5530
a(I11
S'dep'
p5531
I15
tp5532
a(I8
S'punct'
p5533
I16
tp5534
aa(lp5535
(I0
g3
I0
tp5536
aa(lp5537
(I2
g3
I2
tp5538
a(I2
S'compound'
p5539
I0
tp5540
a(I2
S'punct'
p5541
I1
tp5542
a(I2
S'nmod:poss'
p5543
I2
tp5544
a(I2
S'case'
p5545
I2
tp5546
a(I2
S'dep'
p5547
I2
tp5548
a(I6
S'case'
p5549
I3
tp5550
a(I6
S'nummod'
p5551
I4
tp5552
a(I6
S'compound'
p5553
I5
tp5554
a(I2
S'nmod:of'
p5555
I6
tp5556
a(I2
S'punct'
p5557
I7
tp5558
a(I10
S'compound'
p5559
I8
tp5560
a(I10
S'punct'
p5561
I9
tp5562
a(I2
S'dep'
p5563
I10
tp5564
a(I14
S'case'
p5565
I11
tp5566
a(I14
S'nummod'
p5567
I12
tp5568
a(I14
S'compound'
p5569
I13
tp5570
a(I10
S'nmod:of'
p5571
I14
tp5572
a(I2
S'punct'
p5573
I15
tp5574
a(I16
S'compound'
p5575
I16
tp5576
a(I2
S'dep'
p5577
I16
tp5578
a(I18
S'nummod'
p5579
I17
tp5580
a(I16
S'dep'
p5581
I18
tp5582
a(I18
S'nummod'
p5583
I19
tp5584
aa(lp5585
(I0
g3
I0
tp5586
a(I0
S'punct'
p5587
I1
tp5588
a(I0
S'dep'
p5589
I2
tp5590
a(I2
S'punct'
p5591
I3
tp5592
a(I2
S'dep'
p5593
I4
tp5594
a(I4
S'punct'
p5595
I5
tp5596
a(I4
S'dep'
p5597
I6
tp5598
aa(lp5599
(I10
g3
I10
tp5600
a(I8
S'det'
p5601
I0
tp5602
a(I2
S'compound'
p5603
I1
tp5604
a(I4
S'nummod'
p5605
I2
tp5606
a(I4
S'compound'
p5607
I3
tp5608
a(I4
S'compound'
p5609
I3
tp5610
a(I8
S'compound'
p5611
I4
tp5612
a(I8
S'amod'
p5613
I5
tp5614
a(I8
S'amod'
p5615
I5
tp5616
a(I8
S'amod'
p5617
I6
tp5618
a(I8
S'compound'
p5619
I7
tp5620
a(I10
S'nsubj'
p5621
I8
tp5622
a(I10
S'cop'
p5623
I9
tp5624
a(I12
S'case'
p5625
I11
tp5626
a(I10
S'nmod:upon'
p5627
I12
tp5628
a(I14
S'case'
p5629
I13
tp5630
a(I12
S'nmod:of'
p5631
I14
tp5632
a(I16
S'case'
p5633
I15
tp5634
a(I16
S'compound'
p5635
I16
tp5636
a(I14
S'nmod:between'
p5637
I16
tp5638
a(I12
S'cc'
p5639
I17
tp5640
a(I18
S'compound'
p5641
I18
tp5642
a(I12
S'conj:and'
p5643
I18
tp5644
a(I22
S'case'
p5645
I19
tp5646
a(I20
S'compound'
p5647
I20
tp5648
a(I22
S'nmod:poss'
p5649
I20
tp5650
a(I20
S'case'
p5651
I21
tp5652
a(I18
S'nmod:regarding'
p5653
I22
tp5654
a(I24
S'mark'
p5655
I23
tp5656
a(I22
S'acl'
p5657
I24
tp5658
a(I26
S'amod'
p5659
I25
tp5660
a(I24
S'dobj'
p5661
I26
tp5662
a(I10
S'punct'
p5663
I27
tp5664
aa(lp5665
(I1
g3
I1
tp5666
a(I0
S'compound'
p5667
I0
tp5668
a(I1
S'nsubj'
p5669
I0
tp5670
a(I3
S'case'
p5671
I2
tp5672
a(I1
S'nmod:on'
p5673
I3
tp5674
a(I15
S'mark'
p5675
I4
tp5676
a(I13
S'det'
p5677
I5
tp5678
a(I7
S'compound'
p5679
I6
tp5680
a(I9
S'nummod'
p5681
I7
tp5682
a(I9
S'compound'
p5683
I8
tp5684
a(I9
S'compound'
p5685
I8
tp5686
a(I13
S'compound'
p5687
I9
tp5688
a(I13
S'amod'
p5689
I10
tp5690
a(I13
S'amod'
p5691
I10
tp5692
a(I13
S'amod'
p5693
I11
tp5694
a(I13
S'compound'
p5695
I12
tp5696
a(I15
S'nsubj'
p5697
I13
tp5698
a(I15
S'cop'
p5699
I14
tp5700
a(I1
S'ccomp'
p5701
I15
tp5702
a(I17
S'case'
p5703
I16
tp5704
a(I15
S'nmod:upon'
p5705
I17
tp5706
a(I19
S'case'
p5707
I18
tp5708
a(I17
S'nmod:of'
p5709
I19
tp5710
a(I21
S'case'
p5711
I20
tp5712
a(I21
S'compound'
p5713
I21
tp5714
a(I19
S'nmod:between'
p5715
I21
tp5716
a(I17
S'cc'
p5717
I22
tp5718
a(I23
S'compound'
p5719
I23
tp5720
a(I17
S'conj:and'
p5721
I23
tp5722
a(I27
S'case'
p5723
I24
tp5724
a(I25
S'compound'
p5725
I25
tp5726
a(I27
S'nmod:poss'
p5727
I25
tp5728
a(I25
S'case'
p5729
I26
tp5730
a(I23
S'nmod:regarding'
p5731
I27
tp5732
a(I29
S'mark'
p5733
I28
tp5734
a(I27
S'acl'
p5735
I29
tp5736
a(I31
S'amod'
p5737
I30
tp5738
a(I29
S'dobj'
p5739
I31
tp5740
a(I1
S'punct'
p5741
I32
tp5742
aa(lp5743
(I1
g3
I1
tp5744
a(I1
S'nsubj'
p5745
I0
tp5746
a(I4
S'mark'
p5747
I2
tp5748
a(I3
S'compound'
p5749
I3
tp5750
a(I4
S'nsubj'
p5751
I3
tp5752
a(I1
S'ccomp'
p5753
I4
tp5754
a(I6
S'det'
p5755
I5
tp5756
a(I4
S'dobj'
p5757
I6
tp5758
a(I8
S'case'
p5759
I7
tp5760
a(I4
S'nmod:during'
p5761
I8
tp5762
a(I13
S'case'
p5763
I9
tp5764
a(I10
S'amod'
p5765
I10
tp5766
a(I13
S'amod'
p5767
I10
tp5768
a(I13
S'compound'
p5769
I11
tp5770
a(I13
S'compound'
p5771
I12
tp5772
a(I13
S'compound'
p5773
I13
tp5774
a(I4
S'nmod:with'
p5775
I13
tp5776
a(I13
S'punct'
p5777
I13
tp5778
a(I13
S'dep'
p5779
I13
tp5780
a(I1
S'punct'
p5781
I14
tp5782
aa(lp5783
(I3
g3
I3
tp5784
a(I0
S'compound'
p5785
I0
tp5786
a(I3
S'nsubj'
p5787
I0
tp5788
a(I3
S'cop'
p5789
I1
tp5790
a(I3
S'amod'
p5791
I2
tp5792
a(I6
S'case'
p5793
I4
tp5794
a(I6
S'det'
p5795
I5
tp5796
a(I6
S'amod'
p5797
I6
tp5798
a(I6
S'compound'
p5799
I6
tp5800
a(I6
S'compound'
p5801
I6
tp5802
a(I6
S'compound'
p5803
I6
tp5804
a(I3
S'nmod:of'
p5805
I6
tp5806
a(I3
S'punct'
p5807
I7
tp5808
aa(lp5809
(I1
g3
I1
tp5810
a(I1
S'compound'
p5811
I0
tp5812
a(I1
S'punct'
p5813
I1
tp5814
a(I1
S'dep'
p5815
I1
tp5816
a(I1
S'acl'
p5817
I2
tp5818
a(I4
S'case'
p5819
I3
tp5820
a(I2
S'nmod:to'
p5821
I4
tp5822
a(I7
S'dobj'
p5823
I5
tp5824
a(I6
S'compound'
p5825
I6
tp5826
a(I7
S'nsubj'
p5827
I6
tp5828
a(I4
S'acl:relcl'
p5829
I7
tp5830
a(I15
S'mark'
p5831
I8
tp5832
a(I13
S'det'
p5833
I9
tp5834
a(I10
S'amod'
p5835
I10
tp5836
a(I13
S'amod'
p5837
I10
tp5838
a(I13
S'amod'
p5839
I11
tp5840
a(I13
S'compound'
p5841
I12
tp5842
a(I15
S'nsubjpass'
p5843
I13
tp5844
a(I15
S'auxpass'
p5845
I14
tp5846
a(I7
S'ccomp'
p5847
I15
tp5848
a(I19
S'case'
p5849
I16
tp5850
a(I17
S'compound'
p5851
I17
tp5852
a(I19
S'nmod:poss'
p5853
I17
tp5854
a(I17
S'case'
p5855
I18
tp5856
a(I15
S'nmod:to'
p5857
I19
tp5858
a(I22
S'case'
p5859
I20
tp5860
a(I22
S'amod'
p5861
I21
tp5862
a(I15
S'nmod:with'
p5863
I22
tp5864
a(I1
S'punct'
p5865
I23
tp5866
aa(lp5867
(I1
g3
I1
tp5868
a(I1
S'compound'
p5869
I0
tp5870
a(I1
S'punct'
p5871
I1
tp5872
a(I4
S'nsubj'
p5873
I1
tp5874
a(I4
S'cop'
p5875
I2
tp5876
a(I4
S'det'
p5877
I3
tp5878
a(I1
S'parataxis'
p5879
I4
tp5880
a(I7
S'case'
p5881
I5
tp5882
a(I7
S'det'
p5883
I6
tp5884
a(I7
S'amod'
p5885
I7
tp5886
a(I7
S'amod'
p5887
I7
tp5888
a(I7
S'compound'
p5889
I7
tp5890
a(I7
S'nmod:poss'
p5891
I7
tp5892
a(I7
S'case'
p5893
I7
tp5894
a(I7
S'amod'
p5895
I7
tp5896
a(I7
S'compound'
p5897
I7
tp5898
a(I7
S'compound'
p5899
I7
tp5900
a(I4
S'nmod:of'
p5901
I7
tp5902
a(I1
S'punct'
p5903
I8
tp5904
aa(lp5905
(I1
g3
I1
tp5906
a(I1
S'compound'
p5907
I0
tp5908
a(I1
S'punct'
p5909
I1
tp5910
a(I2
S'nsubj'
p5911
I1
tp5912
a(I1
S'parataxis'
p5913
I2
tp5914
a(I5
S'mark'
p5915
I3
tp5916
a(I4
S'compound'
p5917
I4
tp5918
a(I5
S'nsubj'
p5919
I4
tp5920
a(I2
S'ccomp'
p5921
I5
tp5922
a(I24
S'mark'
p5923
I6
tp5924
a(I7
S'compound'
p5925
I7
tp5926
a(I9
S'nmod:poss'
p5927
I7
tp5928
a(I7
S'case'
p5929
I8
tp5930
a(I24
S'nsubj'
p5931
I9
tp5932
a(I13
S'case'
p5933
I10
tp5934
a(I13
S'det'
p5935
I11
tp5936
a(I13
S'amod'
p5937
I12
tp5938
a(I9
S'nmod:in'
p5939
I13
tp5940
a(I13
S'acl'
p5941
I14
tp5942
a(I17
S'case'
p5943
I15
tp5944
a(I17
S'det'
p5945
I16
tp5946
a(I17
S'compound'
p5947
I17
tp5948
a(I14
S'nmod:by'
p5949
I17
tp5950
a(I19
S'mark'
p5951
I18
tp5952
a(I14
S'xcomp'
p5953
I19
tp5954
a(I22
S'det'
p5955
I20
tp5956
a(I22
S'amod'
p5957
I21
tp5958
a(I19
S'dobj'
p5959
I22
tp5960
a(I24
S'aux'
p5961
I23
tp5962
a(I5
S'ccomp'
p5963
I24
tp5964
a(I25
S'amod'
p5965
I25
tp5966
a(I25
S'compound'
p5967
I25
tp5968
a(I25
S'compound'
p5969
I25
tp5970
a(I25
S'compound'
p5971
I25
tp5972
a(I26
S'nsubj'
p5973
I25
tp5974
a(I24
S'ccomp'
p5975
I26
tp5976
a(I29
S'det'
p5977
I27
tp5978
a(I29
S'compound'
p5979
I28
tp5980
a(I26
S'dobj'
p5981
I29
tp5982
a(I35
S'case'
p5983
I30
tp5984
a(I35
S'det'
p5985
I31
tp5986
a(I32
S'amod'
p5987
I32
tp5988
a(I35
S'amod'
p5989
I32
tp5990
a(I35
S'amod'
p5991
I33
tp5992
a(I35
S'compound'
p5993
I34
tp5994
a(I26
S'nmod:over'
p5995
I35
tp5996
a(I1
S'punct'
p5997
I36
tp5998
aa(lp5999
(I1
g3
I1
tp6000
a(I1
S'compound'
p6001
I0
tp6002
a(I1
S'punct'
p6003
I1
tp6004
a(I2
S'nsubj'
p6005
I1
tp6006
a(I1
S'parataxis'
p6007
I2
tp6008
a(I5
S'mark'
p6009
I3
tp6010
a(I5
S'nsubj'
p6011
I4
tp6012
a(I2
S'ccomp'
p6013
I5
tp6014
a(I8
S'mark'
p6015
I6
tp6016
a(I8
S'aux'
p6017
I7
tp6018
a(I5
S'xcomp'
p6019
I8
tp6020
a(I11
S'det'
p6021
I9
tp6022
a(I11
S'amod'
p6023
I10
tp6024
a(I8
S'dobj'
p6025
I11
tp6026
a(I8
S'nmod'
p6027
I12
tp6028
a(I8
S'advmod'
p6029
I13
tp6030
a(I13
S'nmod:npmod'
p6031
I14
tp6032
a(I5
S'cc'
p6033
I15
tp6034
a(I18
S'mark'
p6035
I16
tp6036
a(I18
S'expl'
p6037
I17
tp6038
a(I5
S'conj:and'
p6039
I18
tp6040
a(I23
S'mark'
p6041
I19
tp6042
a(I23
S'aux'
p6043
I20
tp6044
a(I23
S'neg'
p6045
I21
tp6046
a(I23
S'amod'
p6047
I22
tp6048
a(I18
S'xcomp'
p6049
I23
tp6050
a(I26
S'case'
p6051
I24
tp6052
a(I26
S'amod'
p6053
I25
tp6054
a(I23
S'nmod:despite'
p6055
I26
tp6056
a(I29
S'case'
p6057
I27
tp6058
a(I29
S'det'
p6059
I28
tp6060
a(I29
S'compound'
p6061
I29
tp6062
a(I23
S'nmod:in'
p6063
I29
tp6064
a(I1
S'punct'
p6065
I30
tp6066
aa(lp6067
(I1
g3
I1
tp6068
a(I1
S'compound'
p6069
I0
tp6070
a(I1
S'punct'
p6071
I1
tp6072
a(I2
S'nsubj'
p6073
I1
tp6074
a(I1
S'parataxis'
p6075
I2
tp6076
a(I4
S'mark'
p6077
I3
tp6078
a(I2
S'xcomp'
p6079
I4
tp6080
a(I6
S'det'
p6081
I5
tp6082
a(I4
S'dobj'
p6083
I6
tp6084
a(I12
S'case'
p6085
I7
tp6086
a(I12
S'det'
p6087
I8
tp6088
a(I9
S'amod'
p6089
I9
tp6090
a(I12
S'amod'
p6091
I9
tp6092
a(I12
S'amod'
p6093
I10
tp6094
a(I12
S'compound'
p6095
I11
tp6096
a(I4
S'nmod:about'
p6097
I12
tp6098
a(I1
S'punct'
p6099
I13
tp6100
aa(lp6101
(I2
g3
I2
tp6102
a(I1
S'det'
p6103
I0
tp6104
a(I1
S'compound'
p6105
I1
tp6106
a(I1
S'compound'
p6107
I1
tp6108
a(I2
S'nsubj'
p6109
I1
tp6110
a(I6
S'mark'
p6111
I3
tp6112
a(I4
S'compound'
p6113
I4
tp6114
a(I6
S'nsubj'
p6115
I4
tp6116
a(I6
S'aux'
p6117
I5
tp6118
a(I2
S'ccomp'
p6119
I6
tp6120
a(I16
S'mark'
p6121
I7
tp6122
a(I12
S'det'
p6123
I8
tp6124
a(I9
S'amod'
p6125
I9
tp6126
a(I12
S'amod'
p6127
I9
tp6128
a(I12
S'amod'
p6129
I10
tp6130
a(I12
S'compound'
p6131
I11
tp6132
a(I16
S'nsubjpass'
p6133
I12
tp6134
a(I16
S'aux'
p6135
I13
tp6136
a(I16
S'neg'
p6137
I14
tp6138
a(I16
S'auxpass'
p6139
I15
tp6140
a(I6
S'ccomp'
p6141
I16
tp6142
a(I21
S'mark'
p6143
I17
tp6144
a(I20
S'det'
p6145
I18
tp6146
a(I19
S'amod'
p6147
I19
tp6148
a(I20
S'amod'
p6149
I19
tp6150
a(I21
S'nsubj'
p6151
I20
tp6152
a(I16
S'advcl'
p6153
I21
tp6154
a(I23
S'mark'
p6155
I22
tp6156
a(I21
S'xcomp'
p6157
I23
tp6158
a(I26
S'det'
p6159
I24
tp6160
a(I26
S'amod'
p6161
I25
tp6162
a(I23
S'dobj'
p6163
I26
tp6164
a(I2
S'punct'
p6165
I27
tp6166
aa(lp6167
(I5
g3
I5
tp6168
a(I2
S'det'
p6169
I0
tp6170
a(I2
S'compound'
p6171
I1
tp6172
a(I2
S'compound'
p6173
I1
tp6174
a(I5
S'nsubj'
p6175
I2
tp6176
a(I5
S'aux'
p6177
I3
tp6178
a(I5
S'advmod'
p6179
I4
tp6180
a(I10
S'det'
p6181
I6
tp6182
a(I7
S'amod'
p6183
I7
tp6184
a(I10
S'amod'
p6185
I7
tp6186
a(I10
S'amod'
p6187
I8
tp6188
a(I10
S'compound'
p6189
I9
tp6190
a(I5
S'dobj'
p6191
I10
tp6192
a(I12
S'auxpass'
p6193
I11
tp6194
a(I5
S'dep'
p6195
I12
tp6196
a(I14
S'case'
p6197
I13
tp6198
a(I12
S'nmod:as'
p6199
I14
tp6200
a(I18
S'case'
p6201
I15
tp6202
a(I18
S'amod'
p6203
I16
tp6204
a(I18
S'amod'
p6205
I17
tp6206
a(I14
S'nmod:of'
p6207
I18
tp6208
a(I22
S'case'
p6209
I19
tp6210
a(I22
S'det'
p6211
I20
tp6212
a(I21
S'amod'
p6213
I21
tp6214
a(I22
S'amod'
p6215
I21
tp6216
a(I18
S'nmod:on'
p6217
I22
tp6218
a(I5
S'punct'
p6219
I23
tp6220
aa(lp6221
(I4
g3
I4
tp6222
a(I0
S'compound'
p6223
I0
tp6224
a(I4
S'nsubj'
p6225
I0
tp6226
a(I4
S'aux'
p6227
I1
tp6228
a(I3
S'advmod'
p6229
I2
tp6230
a(I4
S'advmod'
p6231
I3
tp6232
a(I7
S'det'
p6233
I5
tp6234
a(I7
S'amod'
p6235
I6
tp6236
a(I4
S'dobj'
p6237
I7
tp6238
a(I10
S'case'
p6239
I8
tp6240
a(I10
S'det'
p6241
I9
tp6242
a(I4
S'nmod:on'
p6243
I10
tp6244
a(I16
S'case'
p6245
I11
tp6246
a(I16
S'det'
p6247
I12
tp6248
a(I13
S'amod'
p6249
I13
tp6250
a(I16
S'amod'
p6251
I13
tp6252
a(I16
S'amod'
p6253
I14
tp6254
a(I16
S'compound'
p6255
I15
tp6256
a(I10
S'nmod:of'
p6257
I16
tp6258
a(I4
S'punct'
p6259
I17
tp6260
aa(lp6261
(I7
g3
I7
tp6262
a(I1
S'det'
p6263
I0
tp6264
a(I1
S'amod'
p6265
I1
tp6266
a(I1
S'compound'
p6267
I1
tp6268
a(I1
S'compound'
p6269
I1
tp6270
a(I1
S'compound'
p6271
I1
tp6272
a(I3
S'nsubjpass'
p6273
I1
tp6274
a(I3
S'auxpass'
p6275
I2
tp6276
a(I7
S'dep'
p6277
I3
tp6278
a(I6
S'case'
p6279
I4
tp6280
a(I6
S'det'
p6281
I5
tp6282
a(I3
S'nmod:under'
p6283
I6
tp6284
a(I7
S'nsubj'
p6285
I8
tp6286
a(I10
S'case'
p6287
I9
tp6288
a(I10
S'compound'
p6289
I10
tp6290
a(I8
S'nmod:between'
p6291
I10
tp6292
a(I10
S'cc'
p6293
I11
tp6294
a(I13
S'det'
p6295
I12
tp6296
a(I13
S'compound'
p6297
I13
tp6298
a(I10
S'conj:and'
p6299
I13
tp6300
a(I7
S'punct'
p6301
I14
tp6302
aa(lp6303
(I2
g3
I2
tp6304
a(I1
S'det'
p6305
I0
tp6306
a(I1
S'amod'
p6307
I1
tp6308
a(I1
S'compound'
p6309
I1
tp6310
a(I1
S'compound'
p6311
I1
tp6312
a(I1
S'compound'
p6313
I1
tp6314
a(I2
S'nsubj'
p6315
I1
tp6316
a(I4
S'mark'
p6317
I3
tp6318
a(I2
S'xcomp'
p6319
I4
tp6320
a(I5
S'compound'
p6321
I5
tp6322
a(I4
S'dobj'
p6323
I5
tp6324
a(I8
S'case'
p6325
I6
tp6326
a(I8
S'nummod'
p6327
I7
tp6328
a(I5
S'nmod:with'
p6329
I8
tp6330
a(I2
S'punct'
p6331
I9
tp6332
a(I12
S'compound'
p6333
I10
tp6334
a(I12
S'amod'
p6335
I11
tp6336
a(I13
S'nsubj'
p6337
I12
tp6338
a(I2
S'parataxis'
p6339
I13
tp6340
a(I17
S'amod'
p6341
I14
tp6342
a(I16
S'case'
p6343
I15
tp6344
a(I14
S'nmod:for'
p6345
I16
tp6346
a(I13
S'dobj'
p6347
I17
tp6348
a(I17
S'cc'
p6349
I18
tp6350
a(I21
S'nummod'
p6351
I19
tp6352
a(I21
S'amod'
p6353
I20
tp6354
a(I17
S'conj:and'
p6355
I21
tp6356
a(I25
S'case'
p6357
I22
tp6358
a(I25
S'amod'
p6359
I23
tp6360
a(I25
S'compound'
p6361
I24
tp6362
a(I21
S'nmod:of'
p6363
I25
tp6364
a(I27
S'case'
p6365
I26
tp6366
a(I25
S'nmod:per'
p6367
I27
tp6368
a(I2
S'punct'
p6369
I28
tp6370
aa(lp6371
(I0
g3
I0
tp6372
a(I4
S'case'
p6373
I1
tp6374
a(I4
S'det'
p6375
I2
tp6376
a(I4
S'nummod'
p6377
I3
tp6378
a(I0
S'nmod:on'
p6379
I4
tp6380
a(I0
S'punct'
p6381
I5
tp6382
a(I0
S'dep'
p6383
I6
tp6384
a(I8
S'amod'
p6385
I7
tp6386
a(I9
S'nsubj'
p6387
I8
tp6388
a(I6
S'acl:relcl'
p6389
I9
tp6390
a(I11
S'case'
p6391
I10
tp6392
a(I9
S'nmod:in'
p6393
I11
tp6394
a(I9
S'cc'
p6395
I12
tp6396
a(I16
S'cop'
p6397
I13
tp6398
a(I16
S'advmod'
p6399
I14
tp6400
a(I16
S'case'
p6401
I15
tp6402
a(I9
S'conj:and'
p6403
I16
tp6404
a(I0
S'punct'
p6405
I17
tp6406
aa(lp6407
(I0
g3
I0
tp6408
a(I2
S'case'
p6409
I1
tp6410
a(I0
S'nmod:on'
p6411
I2
tp6412
a(I6
S'case'
p6413
I3
tp6414
a(I6
S'det'
p6415
I4
tp6416
a(I6
S'nummod'
p6417
I5
tp6418
a(I0
S'nmod:of'
p6419
I6
tp6420
a(I0
S'punct'
p6421
I7
tp6422
a(I0
S'dep'
p6423
I8
tp6424
a(I10
S'amod'
p6425
I9
tp6426
a(I13
S'nsubjpass'
p6427
I10
tp6428
a(I13
S'auxpass'
p6429
I11
tp6430
a(I13
S'advmod'
p6431
I12
tp6432
a(I8
S'acl:relcl'
p6433
I13
tp6434
a(I16
S'mark'
p6435
I14
tp6436
a(I16
S'auxpass'
p6437
I15
tp6438
a(I13
S'xcomp'
p6439
I16
tp6440
a(I18
S'case'
p6441
I17
tp6442
a(I16
S'nmod:in'
p6443
I18
tp6444
a(I0
S'punct'
p6445
I19
tp6446
aa(lp6447
(I3
g3
I3
tp6448
a(I1
S'det'
p6449
I0
tp6450
a(I1
S'amod'
p6451
I1
tp6452
a(I1
S'compound'
p6453
I1
tp6454
a(I1
S'compound'
p6455
I1
tp6456
a(I1
S'compound'
p6457
I1
tp6458
a(I3
S'nsubj'
p6459
I1
tp6460
a(I3
S'aux'
p6461
I2
tp6462
a(I5
S'compound'
p6463
I4
tp6464
a(I3
S'dobj'
p6465
I5
tp6466
a(I9
S'case'
p6467
I6
tp6468
a(I9
S'det'
p6469
I7
tp6470
a(I9
S'nummod'
p6471
I8
tp6472
a(I5
S'nmod:on'
p6473
I9
tp6474
a(I5
S'punct'
p6475
I10
tp6476
a(I5
S'dep'
p6477
I11
tp6478
a(I13
S'amod'
p6479
I12
tp6480
a(I11
S'dep'
p6481
I13
tp6482
a(I3
S'cc'
p6483
I14
tp6484
a(I16
S'aux'
p6485
I15
tp6486
a(I3
S'conj:and'
p6487
I16
tp6488
a(I16
S'dobj'
p6489
I17
tp6490
a(I20
S'case'
p6491
I18
tp6492
a(I20
S'compound'
p6493
I19
tp6494
a(I17
S'nmod:of'
p6495
I20
tp6496
a(I22
S'case'
p6497
I21
tp6498
a(I22
S'compound'
p6499
I22
tp6500
a(I16
S'nmod:to'
p6501
I22
tp6502
a(I24
S'case'
p6503
I23
tp6504
a(I22
S'nmod:from'
p6505
I24
tp6506
a(I27
S'case'
p6507
I25
tp6508
a(I27
S'det'
p6509
I26
tp6510
a(I16
S'advcl:at'
p6511
I27
tp6512
a(I31
S'case'
p6513
I28
tp6514
a(I31
S'det'
p6515
I29
tp6516
a(I31
S'amod'
p6517
I30
tp6518
a(I27
S'nmod:of'
p6519
I31
tp6520
a(I27
S'punct'
p6521
I32
tp6522
a(I35
S'mark'
p6523
I33
tp6524
a(I35
S'nsubj'
p6525
I34
tp6526
a(I27
S'nmod'
p6527
I35
tp6528
a(I37
S'case'
p6529
I36
tp6530
a(I35
S'nmod:in'
p6531
I37
tp6532
a(I42
S'advmod'
p6533
I38
tp6534
a(I41
S'det'
p6535
I39
tp6536
a(I40
S'amod'
p6537
I40
tp6538
a(I41
S'amod'
p6539
I40
tp6540
a(I42
S'nsubj'
p6541
I41
tp6542
a(I35
S'advcl'
p6543
I42
tp6544
a(I44
S'mark'
p6545
I43
tp6546
a(I42
S'advcl'
p6547
I44
tp6548
a(I48
S'det'
p6549
I45
tp6550
a(I48
S'amod'
p6551
I46
tp6552
a(I48
S'compound'
p6553
I47
tp6554
a(I44
S'dobj'
p6555
I48
tp6556
a(I52
S'case'
p6557
I49
tp6558
a(I49
S'mwe'
p6559
I50
tp6560
a(I52
S'amod'
p6561
I51
tp6562
a(I48
S'nmod:based_on'
p6563
I52
tp6564
a(I3
S'punct'
p6565
I53
tp6566
aa(lp6567
(I2
g3
I2
tp6568
a(I1
S'det'
p6569
I0
tp6570
a(I2
S'nsubj'
p6571
I1
tp6572
a(I9
S'nsubj'
p6573
I3
tp6574
a(I5
S'case'
p6575
I4
tp6576
a(I5
S'compound'
p6577
I5
tp6578
a(I3
S'nmod:between'
p6579
I5
tp6580
a(I5
S'cc'
p6581
I6
tp6582
a(I8
S'det'
p6583
I7
tp6584
a(I8
S'compound'
p6585
I8
tp6586
a(I5
S'conj:and'
p6587
I8
tp6588
a(I2
S'ccomp'
p6589
I9
tp6590
a(I10
S'compound'
p6591
I10
tp6592
a(I9
S'dobj'
p6593
I10
tp6594
a(I12
S'mark'
p6595
I11
tp6596
a(I9
S'xcomp'
p6597
I12
tp6598
a(I14
S'det'
p6599
I13
tp6600
a(I12
S'dobj'
p6601
I14
tp6602
a(I16
S'case'
p6603
I15
tp6604
a(I14
S'nmod:of'
p6605
I16
tp6606
a(I14
S'punct'
p6607
I17
tp6608
a(I19
S'amod'
p6609
I18
tp6610
a(I14
S'dep'
p6611
I19
tp6612
a(I19
S'acl'
p6613
I20
tp6614
a(I22
S'mark'
p6615
I21
tp6616
a(I20
S'xcomp'
p6617
I22
tp6618
a(I22
S'dobj'
p6619
I23
tp6620
a(I19
S'punct'
p6621
I24
tp6622
a(I26
S'compound'
p6623
I25
tp6624
a(I19
S'dep'
p6625
I26
tp6626
a(I32
S'case'
p6627
I27
tp6628
a(I28
S'compound'
p6629
I28
tp6630
a(I32
S'nmod:poss'
p6631
I28
tp6632
a(I28
S'case'
p6633
I29
tp6634
a(I32
S'compound'
p6635
I30
tp6636
a(I32
S'amod'
p6637
I31
tp6638
a(I26
S'nmod:at'
p6639
I32
tp6640
a(I2
S'punct'
p6641
I33
tp6642
aa(lp6643
(I3
g3
I3
tp6644
a(I0
S'compound'
p6645
I0
tp6646
a(I3
S'nsubj'
p6647
I0
tp6648
a(I3
S'aux'
p6649
I1
tp6650
a(I3
S'neg'
p6651
I2
tp6652
a(I6
S'case'
p6653
I4
tp6654
a(I6
S'det'
p6655
I5
tp6656
a(I3
S'nmod:to'
p6657
I6
tp6658
a(I6
S'acl'
p6659
I7
tp6660
a(I7
S'dobj'
p6661
I8
tp6662
a(I3
S'punct'
p6663
I9
tp6664
aa(lp6665
(I1
g3
I1
tp6666
a(I0
S'compound'
p6667
I0
tp6668
a(I1
S'nsubj'
p6669
I0
tp6670
a(I4
S'amod'
p6671
I2
tp6672
a(I4
S'compound'
p6673
I3
tp6674
a(I1
S'dobj'
p6675
I4
tp6676
a(I7
S'case'
p6677
I5
tp6678
a(I7
S'det'
p6679
I6
tp6680
a(I1
S'nmod:from'
p6681
I7
tp6682
a(I7
S'punct'
p6683
I8
tp6684
a(I10
S'amod'
p6685
I9
tp6686
a(I7
S'dep'
p6687
I10
tp6688
a(I1
S'punct'
p6689
I11
tp6690
a(I1
S'conj:and'
p6691
I12
tp6692
a(I14
S'nsubj'
p6693
I13
tp6694
a(I14
S'amod'
p6695
I13
tp6696
a(I14
S'compound'
p6697
I13
tp6698
a(I14
S'compound'
p6699
I13
tp6700
a(I12
S'xcomp'
p6701
I14
tp6702
a(I1
S'cc'
p6703
I15
tp6704
a(I1
S'conj:and'
p6705
I16
tp6706
a(I23
S'case'
p6707
I17
tp6708
a(I23
S'det'
p6709
I18
tp6710
a(I23
S'amod'
p6711
I19
tp6712
a(I23
S'amod'
p6713
I20
tp6714
a(I23
S'punct'
p6715
I21
tp6716
a(I23
S'compound'
p6717
I22
tp6718
a(I16
S'nmod:from'
p6719
I23
tp6720
a(I1
S'punct'
p6721
I24
tp6722
aa(lp6723
(I3
g3
I3
tp6724
a(I1
S'case'
p6725
I0
tp6726
a(I3
S'nmod:on'
p6727
I1
tp6728
a(I2
S'compound'
p6729
I2
tp6730
a(I3
S'nsubj'
p6731
I2
tp6732
a(I3
S'advmod'
p6733
I4
tp6734
a(I8
S'case'
p6735
I5
tp6736
a(I8
S'det'
p6737
I6
tp6738
a(I8
S'amod'
p6739
I7
tp6740
a(I3
S'nmod:for'
p6741
I8
tp6742
a(I12
S'dobj'
p6743
I9
tp6744
a(I10
S'compound'
p6745
I10
tp6746
a(I12
S'nsubj'
p6747
I10
tp6748
a(I12
S'aux'
p6749
I11
tp6750
a(I8
S'acl:relcl'
p6751
I12
tp6752
a(I15
S'amod'
p6753
I13
tp6754
a(I15
S'compound'
p6755
I14
tp6756
a(I12
S'dobj'
p6757
I15
tp6758
a(I3
S'punct'
p6759
I16
tp6760
aa(lp6761
(I4
g3
I4
tp6762
a(I1
S'compound'
p6763
I0
tp6764
a(I1
S'compound'
p6765
I0
tp6766
a(I4
S'nsubj'
p6767
I1
tp6768
a(I4
S'aux'
p6769
I2
tp6770
a(I4
S'neg'
p6771
I3
tp6772
a(I6
S'advmod'
p6773
I5
tp6774
a(I13
S'dep'
p6775
I6
tp6776
a(I7
S'compound'
p6777
I7
tp6778
a(I11
S'nmod:poss'
p6779
I7
tp6780
a(I7
S'case'
p6781
I8
tp6782
a(I11
S'amod'
p6783
I9
tp6784
a(I11
S'compound'
p6785
I10
tp6786
a(I13
S'nsubj'
p6787
I11
tp6788
a(I13
S'aux'
p6789
I12
tp6790
a(I4
S'ccomp'
p6791
I13
tp6792
a(I4
S'punct'
p6793
I14
tp6794
aa(lp6795
(I2
g3
I2
tp6796
a(I1
S'compound'
p6797
I0
tp6798
a(I1
S'compound'
p6799
I0
tp6800
a(I2
S'nsubj'
p6801
I1
tp6802
a(I5
S'det'
p6803
I3
tp6804
a(I4
S'amod'
p6805
I4
tp6806
a(I5
S'amod'
p6807
I4
tp6808
a(I8
S'nsubj'
p6809
I5
tp6810
a(I8
S'aux'
p6811
I6
tp6812
a(I8
S'advmod'
p6813
I7
tp6814
a(I2
S'ccomp'
p6815
I8
tp6816
a(I10
S'advmod'
p6817
I9
tp6818
a(I8
S'dobj'
p6819
I10
tp6820
a(I16
S'case'
p6821
I11
tp6822
a(I16
S'nummod'
p6823
I12
tp6824
a(I12
S'cc'
p6825
I13
tp6826
a(I12
S'conj:or'
p6827
I14
tp6828
a(I16
S'amod'
p6829
I15
tp6830
a(I10
S'nmod:for'
p6831
I16
tp6832
a(I2
S'punct'
p6833
I17
tp6834
aa(lp6835
(I4
g3
I4
tp6836
a(I0
S'compound'
p6837
I0
tp6838
a(I4
S'nsubj'
p6839
I0
tp6840
a(I0
S'cc'
p6841
I1
tp6842
a(I3
S'det'
p6843
I2
tp6844
a(I3
S'compound'
p6845
I3
tp6846
a(I0
S'conj:and'
p6847
I3
tp6848
a(I4
S'compound:prt'
p6849
I5
tp6850
a(I9
S'case'
p6851
I6
tp6852
a(I9
S'nmod:poss'
p6853
I7
tp6854
a(I9
S'amod'
p6855
I8
tp6856
a(I4
S'nmod:for'
p6857
I9
tp6858
a(I11
S'case'
p6859
I10
tp6860
a(I9
S'nmod:in'
p6861
I11
tp6862
a(I9
S'punct'
p6863
I12
tp6864
a(I14
S'compound'
p6865
I13
tp6866
a(I9
S'dep'
p6867
I14
tp6868
a(I16
S'case'
p6869
I15
tp6870
a(I14
S'nmod:with'
p6871
I16
tp6872
a(I18
S'case'
p6873
I17
tp6874
a(I4
S'nmod:in'
p6875
I18
tp6876
a(I4
S'cc'
p6877
I19
tp6878
a(I22
S'neg'
p6879
I20
tp6880
a(I22
S'amod'
p6881
I21
tp6882
a(I25
S'nsubjpass'
p6883
I22
tp6884
a(I25
S'aux'
p6885
I23
tp6886
a(I25
S'auxpass'
p6887
I24
tp6888
a(I4
S'conj:but'
p6889
I25
tp6890
a(I4
S'punct'
p6891
I26
tp6892
aa(lp6893
(I3
g3
I3
tp6894
a(I0
S'compound'
p6895
I0
tp6896
a(I3
S'nsubj'
p6897
I0
tp6898
a(I0
S'dep'
p6899
I1
tp6900
a(I3
S'aux'
p6901
I2
tp6902
a(I3
S'dobj'
p6903
I4
tp6904
a(I7
S'case'
p6905
I5
tp6906
a(I7
S'nmod:poss'
p6907
I6
tp6908
a(I3
S'nmod:from'
p6909
I7
tp6910
a(I9
S'mark'
p6911
I8
tp6912
a(I7
S'acl'
p6913
I9
tp6914
a(I10
S'compound'
p6915
I10
tp6916
a(I13
S'nmod:poss'
p6917
I10
tp6918
a(I10
S'case'
p6919
I11
tp6920
a(I13
S'amod'
p6921
I12
tp6922
a(I9
S'dobj'
p6923
I13
tp6924
a(I16
S'case'
p6925
I14
tp6926
a(I16
S'det'
p6927
I15
tp6928
a(I9
S'nmod:from'
p6929
I16
tp6930
a(I18
S'case'
p6931
I17
tp6932
a(I16
S'nmod:of'
p6933
I18
tp6934
a(I18
S'punct'
p6935
I19
tp6936
a(I21
S'amod'
p6937
I20
tp6938
a(I18
S'conj:and'
p6939
I21
tp6940
a(I18
S'cc'
p6941
I22
tp6942
a(I24
S'compound'
p6943
I23
tp6944
a(I18
S'conj:and'
p6945
I24
tp6946
a(I3
S'punct'
p6947
I25
tp6948
aa(lp6949
(I2
g3
I2
tp6950
a(I0
S'compound'
p6951
I0
tp6952
a(I2
S'nsubj'
p6953
I0
tp6954
a(I2
S'aux'
p6955
I1
tp6956
a(I4
S'det'
p6957
I3
tp6958
a(I4
S'compound'
p6959
I4
tp6960
a(I2
S'dobj'
p6961
I4
tp6962
a(I6
S'mark'
p6963
I5
tp6964
a(I4
S'acl'
p6965
I6
tp6966
a(I8
S'det'
p6967
I7
tp6968
a(I6
S'dobj'
p6969
I8
tp6970
a(I10
S'case'
p6971
I9
tp6972
a(I10
S'compound'
p6973
I10
tp6974
a(I8
S'nmod:of'
p6975
I10
tp6976
a(I2
S'punct'
p6977
I11
tp6978
aa(lp6979
(I0
g3
I0
tp6980
aa(lp6981
(I0
g3
I0
tp6982
a(I0
S'nummod'
p6983
I1
tp6984
a(I0
S'dep'
p6985
I2
tp6986
a(I2
S'nummod'
p6987
I3
tp6988
aa(lp6989
(I0
g3
I0
tp6990
a(I0
S'punct'
p6991
I1
tp6992
a(I0
S'dep'
p6993
I2
tp6994
a(I2
S'punct'
p6995
I3
tp6996
a(I2
S'dep'
p6997
I4
tp6998
aa(lp6999
(I2
g3
I2
tp7000
a(I1
S'amod'
p7001
I0
tp7002
a(I2
S'nsubj'
p7003
I1
tp7004
a(I4
S'amod'
p7005
I3
tp7006
a(I2
S'dobj'
p7007
I4
tp7008
a(I6
S'mark'
p7009
I5
tp7010
a(I2
S'advcl'
p7011
I6
tp7012
a(I8
S'nummod'
p7013
I7
tp7014
a(I6
S'dobj'
p7015
I8
tp7016
a(I10
S'compound'
p7017
I9
tp7018
a(I6
S'nmod:from'
p7019
I10
tp7020
a(I10
S'case'
p7021
I11
tp7022
a(I10
S'dep'
p7023
I12
tp7024
a(I12
S'cc'
p7025
I13
tp7026
a(I12
S'conj:and'
p7027
I14
tp7028
a(I2
S'punct'
p7029
I15
tp7030
aa(lp7031
(I21
g3
I21
tp7032
a(I2
S'compound'
p7033
I0
tp7034
a(I2
S'compound'
p7035
I1
tp7036
a(I21
S'nsubj'
p7037
I2
tp7038
a(I2
S'acl'
p7039
I3
tp7040
a(I5
S'case'
p7041
I4
tp7042
a(I3
S'nmod:on'
p7043
I5
tp7044
a(I3
S'nmod:tmod'
p7045
I5
tp7046
a(I5
S'nummod'
p7047
I5
tp7048
a(I17
S'mark'
p7049
I6
tp7050
a(I9
S'det'
p7051
I7
tp7052
a(I9
S'amod'
p7053
I8
tp7054
a(I17
S'nsubjpass'
p7055
I9
tp7056
a(I12
S'case'
p7057
I10
tp7058
a(I12
S'amod'
p7059
I11
tp7060
a(I9
S'nmod:of'
p7061
I12
tp7062
a(I12
S'cc'
p7063
I13
tp7064
a(I15
S'det'
p7065
I14
tp7066
a(I15
S'compound'
p7067
I15
tp7068
a(I12
S'conj:and'
p7069
I15
tp7070
a(I17
S'auxpass'
p7071
I16
tp7072
a(I3
S'ccomp'
p7073
I17
tp7074
a(I20
S'case'
p7075
I18
tp7076
a(I20
S'amod'
p7077
I19
tp7078
a(I17
S'nmod:after'
p7079
I20
tp7080
a(I23
S'nummod'
p7081
I22
tp7082
a(I21
S'dobj'
p7083
I23
tp7084
a(I25
S'compound'
p7085
I24
tp7086
a(I21
S'nmod:from'
p7087
I25
tp7088
a(I25
S'case'
p7089
I26
tp7090
a(I25
S'dep'
p7091
I27
tp7092
a(I27
S'cc'
p7093
I28
tp7094
a(I27
S'conj:and'
p7095
I29
tp7096
a(I21
S'punct'
p7097
I30
tp7098
aa(lp7099
(I2
g3
I2
tp7100
a(I1
S'det'
p7101
I0
tp7102
a(I1
S'compound'
p7103
I1
tp7104
a(I1
S'compound'
p7105
I1
tp7106
a(I2
S'nsubj'
p7107
I1
tp7108
a(I5
S'amod'
p7109
I3
tp7110
a(I5
S'amod'
p7111
I4
tp7112
a(I5
S'compound'
p7113
I5
tp7114
a(I5
S'compound'
p7115
I5
tp7116
a(I2
S'dobj'
p7117
I5
tp7118
a(I7
S'auxpass'
p7119
I6
tp7120
a(I5
S'acl:relcl'
p7121
I7
tp7122
a(I9
S'case'
p7123
I8
tp7124
a(I7
S'nmod:on'
p7125
I9
tp7126
a(I7
S'nmod:tmod'
p7127
I9
tp7128
a(I9
S'nummod'
p7129
I9
tp7130
a(I14
S'case'
p7131
I10
tp7132
a(I14
S'det'
p7133
I11
tp7134
a(I14
S'amod'
p7135
I12
tp7136
a(I14
S'compound'
p7137
I13
tp7138
a(I7
S'nmod:in'
p7139
I14
tp7140
a(I16
S'case'
p7141
I15
tp7142
a(I14
S'nmod:of'
p7143
I16
tp7144
a(I20
S'case'
p7145
I17
tp7146
a(I20
S'nmod:poss'
p7147
I18
tp7148
a(I18
S'case'
p7149
I19
tp7150
a(I16
S'nmod:for'
p7151
I20
tp7152
a(I25
S'case'
p7153
I21
tp7154
a(I25
S'det'
p7155
I22
tp7156
a(I25
S'compound'
p7157
I23
tp7158
a(I25
S'compound'
p7159
I24
tp7160
a(I20
S'nmod:in'
p7161
I25
tp7162
a(I27
S'case'
p7163
I26
tp7164
a(I2
S'nmod:from'
p7165
I27
tp7166
a(I29
S'case'
p7167
I28
tp7168
a(I2
S'nmod:to'
p7169
I29
tp7170
a(I31
S'case'
p7171
I30
tp7172
a(I29
S'nmod:via'
p7173
I31
tp7174
a(I2
S'punct'
p7175
I32
tp7176
aa(lp7177
(I27
g3
I27
tp7178
a(I3
S'det'
p7179
I0
tp7180
a(I3
S'compound'
p7181
I1
tp7182
a(I3
S'compound'
p7183
I2
tp7184
a(I27
S'nsubj'
p7185
I3
tp7186
a(I6
S'mark'
p7187
I4
tp7188
a(I6
S'nsubj'
p7189
I5
tp7190
a(I3
S'dep'
p7191
I6
tp7192
a(I6
S'dobj'
p7193
I7
tp7194
a(I9
S'case'
p7195
I8
tp7196
a(I9
S'compound'
p7197
I9
tp7198
a(I9
S'compound'
p7199
I9
tp7200
a(I9
S'compound'
p7201
I9
tp7202
a(I6
S'nmod:to'
p7203
I9
tp7204
a(I19
S'advmod'
p7205
I10
tp7206
a(I14
S'nmod:poss'
p7207
I11
tp7208
a(I11
S'case'
p7209
I12
tp7210
a(I14
S'amod'
p7211
I13
tp7212
a(I19
S'nsubjpass'
p7213
I14
tp7214
a(I14
S'punct'
p7215
I15
tp7216
a(I16
S'compound'
p7217
I16
tp7218
a(I16
S'compound'
p7219
I16
tp7220
a(I14
S'appos'
p7221
I16
tp7222
a(I14
S'punct'
p7223
I17
tp7224
a(I19
S'auxpass'
p7225
I18
tp7226
a(I6
S'advcl'
p7227
I19
tp7228
a(I21
S'case'
p7229
I20
tp7230
a(I19
S'nmod:on'
p7231
I21
tp7232
a(I19
S'nmod:tmod'
p7233
I21
tp7234
a(I21
S'nummod'
p7235
I21
tp7236
a(I26
S'case'
p7237
I22
tp7238
a(I25
S'advmod'
p7239
I23
tp7240
a(I23
S'mwe'
p7241
I24
tp7242
a(I26
S'nummod'
p7243
I25
tp7244
a(I19
S'nmod:with'
p7245
I26
tp7246
a(I29
S'nummod'
p7247
I28
tp7248
a(I30
S'nsubj'
p7249
I29
tp7250
a(I27
S'xcomp'
p7251
I30
tp7252
a(I32
S'case'
p7253
I31
tp7254
a(I30
S'nmod:of'
p7255
I32
tp7256
a(I27
S'punct'
p7257
I33
tp7258
aa(lp7259
(I3
g3
I3
tp7260
a(I3
S'dep'
p7261
I0
tp7262
a(I3
S'punct'
p7263
I1
tp7264
a(I3
S'compound'
p7265
I2
tp7266
a(I5
S'case'
p7267
I4
tp7268
a(I3
S'nmod:on'
p7269
I5
tp7270
a(I3
S'nmod:tmod'
p7271
I5
tp7272
a(I5
S'nummod'
p7273
I5
tp7274
a(I7
S'advmod'
p7275
I6
tp7276
a(I3
S'acl'
p7277
I7
tp7278
a(I9
S'det'
p7279
I8
tp7280
a(I9
S'compound'
p7281
I9
tp7282
a(I10
S'nsubj'
p7283
I9
tp7284
a(I7
S'ccomp'
p7285
I10
tp7286
a(I12
S'amod'
p7287
I11
tp7288
a(I10
S'dobj'
p7289
I12
tp7290
a(I15
S'mark'
p7291
I13
tp7292
a(I15
S'nsubj'
p7293
I14
tp7294
a(I10
S'advcl'
p7295
I15
tp7296
a(I15
S'compound:prt'
p7297
I16
tp7298
a(I19
S'det'
p7299
I17
tp7300
a(I19
S'compound'
p7301
I18
tp7302
a(I15
S'dobj'
p7303
I19
tp7304
a(I23
S'det'
p7305
I20
tp7306
a(I23
S'amod'
p7307
I21
tp7308
a(I23
S'amod'
p7309
I22
tp7310
a(I15
S'nmod:from'
p7311
I23
tp7312
a(I23
S'case'
p7313
I24
tp7314
a(I23
S'dep'
p7315
I25
tp7316
a(I27
S'case'
p7317
I26
tp7318
a(I15
S'nmod:to'
p7319
I27
tp7320
a(I3
S'punct'
p7321
I28
tp7322
aa(lp7323
(I14
g3
I14
tp7324
a(I2
S'nmod:poss'
p7325
I0
tp7326
a(I0
S'case'
p7327
I1
tp7328
a(I14
S'nsubj'
p7329
I2
tp7330
a(I2
S'cc'
p7331
I3
tp7332
a(I6
S'nmod:poss'
p7333
I4
tp7334
a(I4
S'case'
p7335
I5
tp7336
a(I2
S'conj:and'
p7337
I6
tp7338
a(I6
S'cc'
p7339
I7
tp7340
a(I6
S'conj:and'
p7341
I8
tp7342
a(I12
S'punct'
p7343
I9
tp7344
a(I12
S'dep'
p7345
I10
tp7346
a(I12
S'punct'
p7347
I11
tp7348
a(I6
S'dep'
p7349
I12
tp7350
a(I14
S'cop'
p7351
I13
tp7352
a(I19
S'case'
p7353
I15
tp7354
a(I19
S'nmod:poss'
p7355
I16
tp7356
a(I16
S'case'
p7357
I17
tp7358
a(I19
S'amod'
p7359
I18
tp7360
a(I14
S'nmod:of'
p7361
I19
tp7362
a(I14
S'cc'
p7363
I20
tp7364
a(I22
S'auxpass'
p7365
I21
tp7366
a(I14
S'conj:and'
p7367
I22
tp7368
a(I24
S'case'
p7369
I23
tp7370
a(I22
S'nmod:on'
p7371
I24
tp7372
a(I22
S'nmod:tmod'
p7373
I24
tp7374
a(I24
S'nummod'
p7375
I24
tp7376
a(I26
S'case'
p7377
I25
tp7378
a(I22
S'nmod:in'
p7379
I26
tp7380
a(I14
S'punct'
p7381
I27
tp7382
aa(lp7383
(I3
g3
I3
tp7384
a(I2
S'det'
p7385
I0
tp7386
a(I2
S'nummod'
p7387
I1
tp7388
a(I3
S'nsubj'
p7389
I2
tp7390
a(I3
S'dobj'
p7391
I4
tp7392
a(I7
S'nsubj'
p7393
I5
tp7394
a(I7
S'aux'
p7395
I6
tp7396
a(I4
S'acl:relcl'
p7397
I7
tp7398
a(I10
S'advmod'
p7399
I8
tp7400
a(I8
S'mwe'
p7401
I9
tp7402
a(I11
S'nummod'
p7403
I10
tp7404
a(I7
S'dobj'
p7405
I11
tp7406
a(I13
S'case'
p7407
I12
tp7408
a(I11
S'nmod:of'
p7409
I13
tp7410
a(I3
S'punct'
p7411
I14
tp7412
aa(lp7413
(I2
g3
I2
tp7414
a(I2
S'nsubj'
p7415
I0
tp7416
a(I2
S'advmod'
p7417
I1
tp7418
a(I5
S'advmod'
p7419
I3
tp7420
a(I3
S'mwe'
p7421
I4
tp7422
a(I6
S'nummod'
p7423
I5
tp7424
a(I2
S'dobj'
p7425
I6
tp7426
a(I8
S'case'
p7427
I7
tp7428
a(I6
S'nmod:of'
p7429
I8
tp7430
a(I8
S'punct'
p7431
I9
tp7432
a(I11
S'det'
p7433
I10
tp7434
a(I8
S'conj:and'
p7435
I11
tp7436
a(I8
S'cc'
p7437
I12
tp7438
a(I17
S'nummod'
p7439
I13
tp7440
a(I13
S'dep'
p7441
I14
tp7442
a(I13
S'compound'
p7443
I15
tp7444
a(I17
S'compound'
p7445
I16
tp7446
a(I8
S'conj:and'
p7447
I17
tp7448
a(I20
S'case'
p7449
I18
tp7450
a(I20
S'det'
p7451
I19
tp7452
a(I17
S'nmod:following'
p7453
I20
tp7454
a(I25
S'case'
p7455
I21
tp7456
a(I23
S'det'
p7457
I22
tp7458
a(I25
S'nmod:poss'
p7459
I23
tp7460
a(I23
S'case'
p7461
I24
tp7462
a(I20
S'nmod:at'
p7463
I25
tp7464
a(I2
S'punct'
p7465
I26
tp7466
aa(lp7467
(I1
g3
I1
tp7468
a(I1
S'nsubj'
p7469
I0
tp7470
a(I1
S'dobj'
p7471
I2
tp7472
a(I7
S'case'
p7473
I3
tp7474
a(I7
S'det'
p7475
I4
tp7476
a(I7
S'amod'
p7477
I5
tp7478
a(I7
S'compound'
p7479
I6
tp7480
a(I2
S'nmod:of'
p7481
I7
tp7482
a(I10
S'case'
p7483
I8
tp7484
a(I10
S'det'
p7485
I9
tp7486
a(I7
S'nmod:in'
p7487
I10
tp7488
a(I1
S'punct'
p7489
I11
tp7490
aa(lp7491
(I1
g3
I1
tp7492
a(I1
S'nsubj'
p7493
I0
tp7494
a(I7
S'mark'
p7495
I2
tp7496
a(I7
S'nsubj'
p7497
I3
tp7498
a(I6
S'case'
p7499
I4
tp7500
a(I6
S'nummod'
p7501
I5
tp7502
a(I3
S'nmod:of'
p7503
I6
tp7504
a(I1
S'advcl'
p7505
I7
tp7506
a(I9
S'nummod'
p7507
I8
tp7508
a(I7
S'dobj'
p7509
I9
tp7510
a(I18
S'nsubj'
p7511
I10
tp7512
a(I10
S'cc'
p7513
I11
tp7514
a(I10
S'conj:or'
p7515
I12
tp7516
a(I14
S'case'
p7517
I13
tp7518
a(I10
S'nmod:of'
p7519
I14
tp7520
a(I14
S'cc'
p7521
I15
tp7522
a(I17
S'nummod'
p7523
I16
tp7524
a(I14
S'conj:or'
p7525
I17
tp7526
a(I9
S'acl:relcl'
p7527
I18
tp7528
a(I20
S'nummod'
p7529
I19
tp7530
a(I18
S'dobj'
p7531
I20
tp7532
a(I27
S'nsubj'
p7533
I21
tp7534
a(I21
S'cc'
p7535
I22
tp7536
a(I21
S'conj:or'
p7537
I23
tp7538
a(I25
S'case'
p7539
I24
tp7540
a(I21
S'nmod:of'
p7541
I25
tp7542
a(I27
S'aux'
p7543
I26
tp7544
a(I20
S'acl:relcl'
p7545
I27
tp7546
a(I30
S'det'
p7547
I28
tp7548
a(I30
S'compound'
p7549
I29
tp7550
a(I27
S'dobj'
p7551
I30
tp7552
a(I1
S'punct'
p7553
I31
tp7554
aa(lp7555
(I0
g3
I0
tp7556
aa(lp7557
(I0
g3
I0
tp7558
a(I2
S'nummod'
p7559
I1
tp7560
a(I0
S'dep'
p7561
I2
tp7562
a(I0
S'dep'
p7563
I3
tp7564
aa(lp7565
(I0
g3
I0
tp7566
a(I0
S'punct'
p7567
I1
tp7568
a(I0
S'dep'
p7569
I2
tp7570
a(I2
S'punct'
p7571
I3
tp7572
a(I2
S'dep'
p7573
I4
tp7574
a(I4
S'punct'
p7575
I5
tp7576
a(I4
S'dep'
p7577
I6
tp7578
aa.